
bin_new/gmon:     file format elf64-x86-64

Disassembly of section .init:

0000000000403b00 <_init>:
  403b00:	48 83 ec 08          	sub    $0x8,%rsp
  403b04:	e8 83 09 00 00       	callq  40448c <call_gmon_start>
  403b09:	e8 02 0a 00 00       	callq  404510 <frame_dummy>
  403b0e:	e8 6d 31 02 00       	callq  426c80 <__do_global_ctors_aux>
  403b13:	48 83 c4 08          	add    $0x8,%rsp
  403b17:	c3                   	retq   
Disassembly of section .plt:

0000000000403b18 <_ZN12ACE_SSL_SOCKD2Ev@plt-0x10>:
  403b18:	ff 35 c2 88 22 00    	pushq  2263234(%rip)        # 62c3e0 <_GLOBAL_OFFSET_TABLE_+0x8>
  403b1e:	ff 25 c4 88 22 00    	jmpq   *2263236(%rip)        # 62c3e8 <_GLOBAL_OFFSET_TABLE_+0x10>
  403b24:	0f 1f 40 00          	nopl   0x0(%rax)

0000000000403b28 <_ZN12ACE_SSL_SOCKD2Ev@plt>:
  403b28:	ff 25 c2 88 22 00    	jmpq   *2263234(%rip)        # 62c3f0 <_GLOBAL_OFFSET_TABLE_+0x18>
  403b2e:	68 00 00 00 00       	pushq  $0x0
  403b33:	e9 e0 ff ff ff       	jmpq   403b18 <_init+0x18>

0000000000403b38 <__errno_location@plt>:
  403b38:	ff 25 ba 88 22 00    	jmpq   *2263226(%rip)        # 62c3f8 <_GLOBAL_OFFSET_TABLE_+0x20>
  403b3e:	68 01 00 00 00       	pushq  $0x1
  403b43:	e9 d0 ff ff ff       	jmpq   403b18 <_init+0x18>

0000000000403b48 <printf@plt>:
  403b48:	ff 25 b2 88 22 00    	jmpq   *2263218(%rip)        # 62c400 <_GLOBAL_OFFSET_TABLE_+0x28>
  403b4e:	68 02 00 00 00       	pushq  $0x2
  403b53:	e9 c0 ff ff ff       	jmpq   403b18 <_init+0x18>

0000000000403b58 <htons@plt>:
  403b58:	ff 25 aa 88 22 00    	jmpq   *2263210(%rip)        # 62c408 <_GLOBAL_OFFSET_TABLE_+0x30>
  403b5e:	68 03 00 00 00       	pushq  $0x3
  403b63:	e9 b0 ff ff ff       	jmpq   403b18 <_init+0x18>

0000000000403b68 <_ZN12ACE_MEM_AddrD1Ev@plt>:
  403b68:	ff 25 a2 88 22 00    	jmpq   *2263202(%rip)        # 62c410 <_GLOBAL_OFFSET_TABLE_+0x38>
  403b6e:	68 04 00 00 00       	pushq  $0x4
  403b73:	e9 a0 ff ff ff       	jmpq   403b18 <_init+0x18>

0000000000403b78 <_ZN13ACE_SingletonI28ACE_Based_Pointer_Repository19ACE_RW_Thread_MutexE8instanceEv@plt>:
  403b78:	ff 25 9a 88 22 00    	jmpq   *2263194(%rip)        # 62c418 <_GLOBAL_OFFSET_TABLE_+0x40>
  403b7e:	68 05 00 00 00       	pushq  $0x5
  403b83:	e9 90 ff ff ff       	jmpq   403b18 <_init+0x18>

0000000000403b88 <isspace@plt>:
  403b88:	ff 25 92 88 22 00    	jmpq   *2263186(%rip)        # 62c420 <_GLOBAL_OFFSET_TABLE_+0x48>
  403b8e:	68 06 00 00 00       	pushq  $0x6
  403b93:	e9 80 ff ff ff       	jmpq   403b18 <_init+0x18>

0000000000403b98 <_ZN20ACE_MMAP_Memory_Pool7acquireEmRm@plt>:
  403b98:	ff 25 8a 88 22 00    	jmpq   *2263178(%rip)        # 62c428 <_GLOBAL_OFFSET_TABLE_+0x50>
  403b9e:	68 07 00 00 00       	pushq  $0x7
  403ba3:	e9 70 ff ff ff       	jmpq   403b18 <_init+0x18>

0000000000403ba8 <_ZN18ACE_Thread_Manager5closeEv@plt>:
  403ba8:	ff 25 82 88 22 00    	jmpq   *2263170(%rip)        # 62c430 <_GLOBAL_OFFSET_TABLE_+0x58>
  403bae:	68 08 00 00 00       	pushq  $0x8
  403bb3:	e9 60 ff ff ff       	jmpq   403b18 <_init+0x18>

0000000000403bb8 <_ZN17ACE_SOCK_Acceptor4openERK8ACE_Addriiii@plt>:
  403bb8:	ff 25 7a 88 22 00    	jmpq   *2263162(%rip)        # 62c438 <_GLOBAL_OFFSET_TABLE_+0x60>
  403bbe:	68 09 00 00 00       	pushq  $0x9
  403bc3:	e9 50 ff ff ff       	jmpq   403b18 <_init+0x18>

0000000000403bc8 <ceil@plt>:
  403bc8:	ff 25 72 88 22 00    	jmpq   *2263154(%rip)        # 62c440 <_GLOBAL_OFFSET_TABLE_+0x68>
  403bce:	68 0a 00 00 00       	pushq  $0xa
  403bd3:	e9 40 ff ff ff       	jmpq   403b18 <_init+0x18>

0000000000403bd8 <sprintf@plt>:
  403bd8:	ff 25 6a 88 22 00    	jmpq   *2263146(%rip)        # 62c448 <_GLOBAL_OFFSET_TABLE_+0x70>
  403bde:	68 0b 00 00 00       	pushq  $0xb
  403be3:	e9 30 ff ff ff       	jmpq   403b18 <_init+0x18>

0000000000403be8 <_ZNK13ACE_INET_Addr14addr_to_stringEPcmi@plt>:
  403be8:	ff 25 62 88 22 00    	jmpq   *2263138(%rip)        # 62c450 <_GLOBAL_OFFSET_TABLE_+0x78>
  403bee:	68 0c 00 00 00       	pushq  $0xc
  403bf3:	e9 20 ff ff ff       	jmpq   403b18 <_init+0x18>

0000000000403bf8 <SSL_get_error@plt>:
  403bf8:	ff 25 5a 88 22 00    	jmpq   *2263130(%rip)        # 62c458 <_GLOBAL_OFFSET_TABLE_+0x80>
  403bfe:	68 0d 00 00 00       	pushq  $0xd
  403c03:	e9 10 ff ff ff       	jmpq   403b18 <_init+0x18>

0000000000403c08 <nanosleep@plt>:
  403c08:	ff 25 52 88 22 00    	jmpq   *2263122(%rip)        # 62c460 <_GLOBAL_OFFSET_TABLE_+0x88>
  403c0e:	68 0e 00 00 00       	pushq  $0xe
  403c13:	e9 00 ff ff ff       	jmpq   403b18 <_init+0x18>

0000000000403c18 <popen@plt>:
  403c18:	ff 25 4a 88 22 00    	jmpq   *2263114(%rip)        # 62c468 <_GLOBAL_OFFSET_TABLE_+0x90>
  403c1e:	68 0f 00 00 00       	pushq  $0xf
  403c23:	e9 f0 fe ff ff       	jmpq   403b18 <_init+0x18>

0000000000403c28 <_ZN6ACE_OS4freeEPv@plt>:
  403c28:	ff 25 42 88 22 00    	jmpq   *2263106(%rip)        # 62c470 <_GLOBAL_OFFSET_TABLE_+0x98>
  403c2e:	68 10 00 00 00       	pushq  $0x10
  403c33:	e9 e0 fe ff ff       	jmpq   403b18 <_init+0x18>

0000000000403c38 <_ZN17ACE_SOCK_AcceptorC1Ev@plt>:
  403c38:	ff 25 3a 88 22 00    	jmpq   *2263098(%rip)        # 62c478 <_GLOBAL_OFFSET_TABLE_+0xa0>
  403c3e:	68 11 00 00 00       	pushq  $0x11
  403c43:	e9 d0 fe ff ff       	jmpq   403b18 <_init+0x18>

0000000000403c48 <_ZN3ACE8send_n_iEiPKvmPK14ACE_Time_ValuePm@plt>:
  403c48:	ff 25 32 88 22 00    	jmpq   *2263090(%rip)        # 62c480 <_GLOBAL_OFFSET_TABLE_+0xa8>
  403c4e:	68 12 00 00 00       	pushq  $0x12
  403c53:	e9 c0 fe ff ff       	jmpq   403b18 <_init+0x18>

0000000000403c58 <_ZN16ACE_MEM_Acceptor6acceptER14ACE_MEM_StreamP12ACE_MEM_AddrP14ACE_Time_Valueii@plt>:
  403c58:	ff 25 2a 88 22 00    	jmpq   *2263082(%rip)        # 62c488 <_GLOBAL_OFFSET_TABLE_+0xb0>
  403c5e:	68 13 00 00 00       	pushq  $0x13
  403c63:	e9 b0 fe ff ff       	jmpq   403b18 <_init+0x18>

0000000000403c68 <strchr@plt>:
  403c68:	ff 25 22 88 22 00    	jmpq   *2263074(%rip)        # 62c490 <_GLOBAL_OFFSET_TABLE_+0xb8>
  403c6e:	68 14 00 00 00       	pushq  $0x14
  403c73:	e9 a0 fe ff ff       	jmpq   403b18 <_init+0x18>

0000000000403c78 <_ZN22ACE_SSL_SOCK_ConnectorD1Ev@plt>:
  403c78:	ff 25 1a 88 22 00    	jmpq   *2263066(%rip)        # 62c498 <_GLOBAL_OFFSET_TABLE_+0xc0>
  403c7e:	68 15 00 00 00       	pushq  $0x15
  403c83:	e9 90 fe ff ff       	jmpq   403b18 <_init+0x18>

0000000000403c88 <_ZN8ACE_SOCK5closeEv@plt>:
  403c88:	ff 25 12 88 22 00    	jmpq   *2263058(%rip)        # 62c4a0 <_GLOBAL_OFFSET_TABLE_+0xc8>
  403c8e:	68 16 00 00 00       	pushq  $0x16
  403c93:	e9 80 fe ff ff       	jmpq   403b18 <_init+0x18>

0000000000403c98 <dirname@plt>:
  403c98:	ff 25 0a 88 22 00    	jmpq   *2263050(%rip)        # 62c4a8 <_GLOBAL_OFFSET_TABLE_+0xd0>
  403c9e:	68 17 00 00 00       	pushq  $0x17
  403ca3:	e9 70 fe ff ff       	jmpq   403b18 <_init+0x18>

0000000000403ca8 <_ZN18ACE_Thread_Manager5spawnEPFPvS0_ES0_lPmS3_liS0_mPPKc@plt>:
  403ca8:	ff 25 02 88 22 00    	jmpq   *2263042(%rip)        # 62c4b0 <_GLOBAL_OFFSET_TABLE_+0xd8>
  403cae:	68 18 00 00 00       	pushq  $0x18
  403cb3:	e9 60 fe ff ff       	jmpq   403b18 <_init+0x18>

0000000000403cb8 <_ZNK12ACE_SSL_SOCK7disableEi@plt>:
  403cb8:	ff 25 fa 87 22 00    	jmpq   *2263034(%rip)        # 62c4b8 <_GLOBAL_OFFSET_TABLE_+0xe0>
  403cbe:	68 19 00 00 00       	pushq  $0x19
  403cc3:	e9 50 fe ff ff       	jmpq   403b18 <_init+0x18>

0000000000403cc8 <unlink@plt>:
  403cc8:	ff 25 f2 87 22 00    	jmpq   *2263026(%rip)        # 62c4c0 <_GLOBAL_OFFSET_TABLE_+0xe8>
  403cce:	68 1a 00 00 00       	pushq  $0x1a
  403cd3:	e9 40 fe ff ff       	jmpq   403b18 <_init+0x18>

0000000000403cd8 <_ZN12ACE_MEM_AddrC1Et@plt>:
  403cd8:	ff 25 ea 87 22 00    	jmpq   *2263018(%rip)        # 62c4c8 <_GLOBAL_OFFSET_TABLE_+0xf0>
  403cde:	68 1b 00 00 00       	pushq  $0x1b
  403ce3:	e9 30 fe ff ff       	jmpq   403b18 <_init+0x18>

0000000000403ce8 <memset@plt>:
  403ce8:	ff 25 e2 87 22 00    	jmpq   *2263010(%rip)        # 62c4d0 <_GLOBAL_OFFSET_TABLE_+0xf8>
  403cee:	68 1c 00 00 00       	pushq  $0x1c
  403cf3:	e9 20 fe ff ff       	jmpq   403b18 <_init+0x18>

0000000000403cf8 <_ZN6ACE_OS12mutex_unlockEP15pthread_mutex_t@plt>:
  403cf8:	ff 25 da 87 22 00    	jmpq   *2263002(%rip)        # 62c4d8 <_GLOBAL_OFFSET_TABLE_+0x100>
  403cfe:	68 1d 00 00 00       	pushq  $0x1d
  403d03:	e9 10 fe ff ff       	jmpq   403b18 <_init+0x18>

0000000000403d08 <_ZNK19ACE_SSL_SOCK_Stream6recv_nEPvii@plt>:
  403d08:	ff 25 d2 87 22 00    	jmpq   *2262994(%rip)        # 62c4e0 <_GLOBAL_OFFSET_TABLE_+0x108>
  403d0e:	68 1e 00 00 00       	pushq  $0x1e
  403d13:	e9 00 fe ff ff       	jmpq   403b18 <_init+0x18>

0000000000403d18 <_ZN13ACE_INET_AddrC1EtPKci@plt>:
  403d18:	ff 25 ca 87 22 00    	jmpq   *2262986(%rip)        # 62c4e8 <_GLOBAL_OFFSET_TABLE_+0x110>
  403d1e:	68 1f 00 00 00       	pushq  $0x1f
  403d23:	e9 f0 fd ff ff       	jmpq   403b18 <_init+0x18>

0000000000403d28 <_ZN19ACE_SSL_SOCK_StreamD1Ev@plt>:
  403d28:	ff 25 c2 87 22 00    	jmpq   *2262978(%rip)        # 62c4f0 <_GLOBAL_OFFSET_TABLE_+0x118>
  403d2e:	68 20 00 00 00       	pushq  $0x20
  403d33:	e9 e0 fd ff ff       	jmpq   403b18 <_init+0x18>

0000000000403d38 <rename@plt>:
  403d38:	ff 25 ba 87 22 00    	jmpq   *2262970(%rip)        # 62c4f8 <_GLOBAL_OFFSET_TABLE_+0x120>
  403d3e:	68 21 00 00 00       	pushq  $0x21
  403d43:	e9 d0 fd ff ff       	jmpq   403b18 <_init+0x18>

0000000000403d48 <_ZNK17ACE_SOCK_Acceptor6acceptER15ACE_SOCK_StreamP8ACE_AddrP14ACE_Time_Valueii@plt>:
  403d48:	ff 25 b2 87 22 00    	jmpq   *2262962(%rip)        # 62c500 <_GLOBAL_OFFSET_TABLE_+0x128>
  403d4e:	68 22 00 00 00       	pushq  $0x22
  403d53:	e9 c0 fd ff ff       	jmpq   403b18 <_init+0x18>

0000000000403d58 <_ZN3ACE4recvEiPvmPK14ACE_Time_Value@plt>:
  403d58:	ff 25 aa 87 22 00    	jmpq   *2262954(%rip)        # 62c508 <_GLOBAL_OFFSET_TABLE_+0x130>
  403d5e:	68 23 00 00 00       	pushq  $0x23
  403d63:	e9 b0 fd ff ff       	jmpq   403b18 <_init+0x18>

0000000000403d68 <_ZNK19ACE_SSL_SOCK_Stream6send_nEPKvii@plt>:
  403d68:	ff 25 a2 87 22 00    	jmpq   *2262946(%rip)        # 62c510 <_GLOBAL_OFFSET_TABLE_+0x138>
  403d6e:	68 24 00 00 00       	pushq  $0x24
  403d73:	e9 a0 fd ff ff       	jmpq   403b18 <_init+0x18>

0000000000403d78 <_ZNK12ACE_MEM_Addr13get_host_nameEv@plt>:
  403d78:	ff 25 9a 87 22 00    	jmpq   *2262938(%rip)        # 62c518 <_GLOBAL_OFFSET_TABLE_+0x140>
  403d7e:	68 25 00 00 00       	pushq  $0x25
  403d83:	e9 90 fd ff ff       	jmpq   403b18 <_init+0x18>

0000000000403d88 <_ZN6ACE_OS8strerrorEi@plt>:
  403d88:	ff 25 92 87 22 00    	jmpq   *2262930(%rip)        # 62c520 <_GLOBAL_OFFSET_TABLE_+0x148>
  403d8e:	68 26 00 00 00       	pushq  $0x26
  403d93:	e9 80 fd ff ff       	jmpq   403b18 <_init+0x18>

0000000000403d98 <_ZN13ACE_INET_Addr15set_port_numberEti@plt>:
  403d98:	ff 25 8a 87 22 00    	jmpq   *2262922(%rip)        # 62c528 <_GLOBAL_OFFSET_TABLE_+0x150>
  403d9e:	68 27 00 00 00       	pushq  $0x27
  403da3:	e9 70 fd ff ff       	jmpq   403b18 <_init+0x18>

0000000000403da8 <_ZN8ACE_SOCKC2Ev@plt>:
  403da8:	ff 25 82 87 22 00    	jmpq   *2262914(%rip)        # 62c530 <_GLOBAL_OFFSET_TABLE_+0x158>
  403dae:	68 28 00 00 00       	pushq  $0x28
  403db3:	e9 60 fd ff ff       	jmpq   403b18 <_init+0x18>

0000000000403db8 <open@plt>:
  403db8:	ff 25 7a 87 22 00    	jmpq   *2262906(%rip)        # 62c538 <_GLOBAL_OFFSET_TABLE_+0x160>
  403dbe:	68 29 00 00 00       	pushq  $0x29
  403dc3:	e9 50 fd ff ff       	jmpq   403b18 <_init+0x18>

0000000000403dc8 <localtime@plt>:
  403dc8:	ff 25 72 87 22 00    	jmpq   *2262898(%rip)        # 62c540 <_GLOBAL_OFFSET_TABLE_+0x168>
  403dce:	68 2a 00 00 00       	pushq  $0x2a
  403dd3:	e9 40 fd ff ff       	jmpq   403b18 <_init+0x18>

0000000000403dd8 <_ZNK8ACE_SOCK14get_local_addrER8ACE_Addr@plt>:
  403dd8:	ff 25 6a 87 22 00    	jmpq   *2262890(%rip)        # 62c548 <_GLOBAL_OFFSET_TABLE_+0x170>
  403dde:	68 2b 00 00 00       	pushq  $0x2b
  403de3:	e9 30 fd ff ff       	jmpq   403b18 <_init+0x18>

0000000000403de8 <isupper@plt>:
  403de8:	ff 25 62 87 22 00    	jmpq   *2262882(%rip)        # 62c550 <_GLOBAL_OFFSET_TABLE_+0x178>
  403dee:	68 2c 00 00 00       	pushq  $0x2c
  403df3:	e9 20 fd ff ff       	jmpq   403b18 <_init+0x18>

0000000000403df8 <htonl@plt>:
  403df8:	ff 25 5a 87 22 00    	jmpq   *2262874(%rip)        # 62c558 <_GLOBAL_OFFSET_TABLE_+0x180>
  403dfe:	68 2d 00 00 00       	pushq  $0x2d
  403e03:	e9 10 fd ff ff       	jmpq   403b18 <_init+0x18>

0000000000403e08 <_ZN3ACE8send_n_iEiPKvmPm@plt>:
  403e08:	ff 25 52 87 22 00    	jmpq   *2262866(%rip)        # 62c560 <_GLOBAL_OFFSET_TABLE_+0x188>
  403e0e:	68 2e 00 00 00       	pushq  $0x2e
  403e13:	e9 00 fd ff ff       	jmpq   403b18 <_init+0x18>

0000000000403e18 <_ZN15ACE_SSL_Context8instanceEv@plt>:
  403e18:	ff 25 4a 87 22 00    	jmpq   *2262858(%rip)        # 62c568 <_GLOBAL_OFFSET_TABLE_+0x190>
  403e1e:	68 2f 00 00 00       	pushq  $0x2f
  403e23:	e9 f0 fc ff ff       	jmpq   403b18 <_init+0x18>

0000000000403e28 <_ZNK23ACE_SV_Semaphore_Simple2opEsts@plt>:
  403e28:	ff 25 42 87 22 00    	jmpq   *2262850(%rip)        # 62c570 <_GLOBAL_OFFSET_TABLE_+0x198>
  403e2e:	68 30 00 00 00       	pushq  $0x30
  403e33:	e9 e0 fc ff ff       	jmpq   403b18 <_init+0x18>

0000000000403e38 <strftime@plt>:
  403e38:	ff 25 3a 87 22 00    	jmpq   *2262842(%rip)        # 62c578 <_GLOBAL_OFFSET_TABLE_+0x1a0>
  403e3e:	68 31 00 00 00       	pushq  $0x31
  403e43:	e9 d0 fc ff ff       	jmpq   403b18 <_init+0x18>

0000000000403e48 <system@plt>:
  403e48:	ff 25 32 87 22 00    	jmpq   *2262834(%rip)        # 62c580 <_GLOBAL_OFFSET_TABLE_+0x1a8>
  403e4e:	68 32 00 00 00       	pushq  $0x32
  403e53:	e9 c0 fc ff ff       	jmpq   403b18 <_init+0x18>

0000000000403e58 <_ZN22ACE_SSL_SOCK_Connector7connectER19ACE_SSL_SOCK_StreamRK8ACE_AddrPK14ACE_Time_ValueS4_iii@plt>:
  403e58:	ff 25 2a 87 22 00    	jmpq   *2262826(%rip)        # 62c588 <_GLOBAL_OFFSET_TABLE_+0x1b0>
  403e5e:	68 33 00 00 00       	pushq  $0x33
  403e63:	e9 b0 fc ff ff       	jmpq   403b18 <_init+0x18>

0000000000403e68 <_ZNK13ACE_INET_Addr13get_host_nameEv@plt>:
  403e68:	ff 25 22 87 22 00    	jmpq   *2262818(%rip)        # 62c590 <_GLOBAL_OFFSET_TABLE_+0x1b8>
  403e6e:	68 34 00 00 00       	pushq  $0x34
  403e73:	e9 a0 fc ff ff       	jmpq   403b18 <_init+0x18>

0000000000403e78 <SSL_clear@plt>:
  403e78:	ff 25 1a 87 22 00    	jmpq   *2262810(%rip)        # 62c598 <_GLOBAL_OFFSET_TABLE_+0x1c0>
  403e7e:	68 35 00 00 00       	pushq  $0x35
  403e83:	e9 90 fc ff ff       	jmpq   403b18 <_init+0x18>

0000000000403e88 <gmtime@plt>:
  403e88:	ff 25 12 87 22 00    	jmpq   *2262802(%rip)        # 62c5a0 <_GLOBAL_OFFSET_TABLE_+0x1c8>
  403e8e:	68 36 00 00 00       	pushq  $0x36
  403e93:	e9 80 fc ff ff       	jmpq   403b18 <_init+0x18>

0000000000403e98 <__cxa_atexit@plt>:
  403e98:	ff 25 0a 87 22 00    	jmpq   *2262794(%rip)        # 62c5a8 <_GLOBAL_OFFSET_TABLE_+0x1d0>
  403e9e:	68 37 00 00 00       	pushq  $0x37
  403ea3:	e9 70 fc ff ff       	jmpq   403b18 <_init+0x18>

0000000000403ea8 <pthread_self@plt>:
  403ea8:	ff 25 02 87 22 00    	jmpq   *2262786(%rip)        # 62c5b0 <_GLOBAL_OFFSET_TABLE_+0x1d8>
  403eae:	68 38 00 00 00       	pushq  $0x38
  403eb3:	e9 60 fc ff ff       	jmpq   403b18 <_init+0x18>

0000000000403eb8 <SSL_read@plt>:
  403eb8:	ff 25 fa 86 22 00    	jmpq   *2262778(%rip)        # 62c5b8 <_GLOBAL_OFFSET_TABLE_+0x1e0>
  403ebe:	68 39 00 00 00       	pushq  $0x39
  403ec3:	e9 50 fc ff ff       	jmpq   403b18 <_init+0x18>

0000000000403ec8 <_ZN13ACE_INET_AddrD1Ev@plt>:
  403ec8:	ff 25 f2 86 22 00    	jmpq   *2262770(%rip)        # 62c5c0 <_GLOBAL_OFFSET_TABLE_+0x1e8>
  403ece:	68 3a 00 00 00       	pushq  $0x3a
  403ed3:	e9 40 fc ff ff       	jmpq   403b18 <_init+0x18>

0000000000403ed8 <time@plt>:
  403ed8:	ff 25 ea 86 22 00    	jmpq   *2262762(%rip)        # 62c5c8 <_GLOBAL_OFFSET_TABLE_+0x1f0>
  403ede:	68 3b 00 00 00       	pushq  $0x3b
  403ee3:	e9 30 fc ff ff       	jmpq   403b18 <_init+0x18>

0000000000403ee8 <strcpy@plt>:
  403ee8:	ff 25 e2 86 22 00    	jmpq   *2262754(%rip)        # 62c5d0 <_GLOBAL_OFFSET_TABLE_+0x1f8>
  403eee:	68 3c 00 00 00       	pushq  $0x3c
  403ef3:	e9 20 fc ff ff       	jmpq   403b18 <_init+0x18>

0000000000403ef8 <_ZdlPv@plt>:
  403ef8:	ff 25 da 86 22 00    	jmpq   *2262746(%rip)        # 62c5d8 <_GLOBAL_OFFSET_TABLE_+0x200>
  403efe:	68 3d 00 00 00       	pushq  $0x3d
  403f03:	e9 10 fc ff ff       	jmpq   403b18 <_init+0x18>

0000000000403f08 <_ZN17ACE_MEM_ConnectorC1Ev@plt>:
  403f08:	ff 25 d2 86 22 00    	jmpq   *2262738(%rip)        # 62c5e0 <_GLOBAL_OFFSET_TABLE_+0x208>
  403f0e:	68 3e 00 00 00       	pushq  $0x3e
  403f13:	e9 00 fc ff ff       	jmpq   403b18 <_init+0x18>

0000000000403f18 <fclose@plt>:
  403f18:	ff 25 ca 86 22 00    	jmpq   *2262730(%rip)        # 62c5e8 <_GLOBAL_OFFSET_TABLE_+0x210>
  403f1e:	68 3f 00 00 00       	pushq  $0x3f
  403f23:	e9 f0 fb ff ff       	jmpq   403b18 <_init+0x18>

0000000000403f28 <_Znwm@plt>:
  403f28:	ff 25 c2 86 22 00    	jmpq   *2262722(%rip)        # 62c5f0 <_GLOBAL_OFFSET_TABLE_+0x218>
  403f2e:	68 40 00 00 00       	pushq  $0x40
  403f33:	e9 e0 fb ff ff       	jmpq   403b18 <_init+0x18>

0000000000403f38 <_ZN3ACE32record_and_set_non_blocking_modeEiRi@plt>:
  403f38:	ff 25 ba 86 22 00    	jmpq   *2262714(%rip)        # 62c5f8 <_GLOBAL_OFFSET_TABLE_+0x220>
  403f3e:	68 41 00 00 00       	pushq  $0x41
  403f43:	e9 d0 fb ff ff       	jmpq   403b18 <_init+0x18>

0000000000403f48 <_ZN12ACE_MEM_AddrC1Ev@plt>:
  403f48:	ff 25 b2 86 22 00    	jmpq   *2262706(%rip)        # 62c600 <_GLOBAL_OFFSET_TABLE_+0x228>
  403f4e:	68 42 00 00 00       	pushq  $0x42
  403f53:	e9 c0 fb ff ff       	jmpq   403b18 <_init+0x18>

0000000000403f58 <_ZN18ACE_SOCK_Connector7connectER15ACE_SOCK_StreamRK8ACE_AddrPK14ACE_Time_ValueS4_iiii@plt>:
  403f58:	ff 25 aa 86 22 00    	jmpq   *2262698(%rip)        # 62c608 <_GLOBAL_OFFSET_TABLE_+0x230>
  403f5e:	68 43 00 00 00       	pushq  $0x43
  403f63:	e9 b0 fb ff ff       	jmpq   403b18 <_init+0x18>

0000000000403f68 <_ZN14ACE_MEM_Stream5closeEv@plt>:
  403f68:	ff 25 a2 86 22 00    	jmpq   *2262690(%rip)        # 62c610 <_GLOBAL_OFFSET_TABLE_+0x238>
  403f6e:	68 44 00 00 00       	pushq  $0x44
  403f73:	e9 a0 fb ff ff       	jmpq   403b18 <_init+0x18>

0000000000403f78 <readlink@plt>:
  403f78:	ff 25 9a 86 22 00    	jmpq   *2262682(%rip)        # 62c618 <_GLOBAL_OFFSET_TABLE_+0x240>
  403f7e:	68 45 00 00 00       	pushq  $0x45
  403f83:	e9 90 fb ff ff       	jmpq   403b18 <_init+0x18>

0000000000403f88 <_ZN3ACE8recv_n_iEiPvmPK14ACE_Time_ValuePm@plt>:
  403f88:	ff 25 92 86 22 00    	jmpq   *2262674(%rip)        # 62c620 <_GLOBAL_OFFSET_TABLE_+0x248>
  403f8e:	68 46 00 00 00       	pushq  $0x46
  403f93:	e9 80 fb ff ff       	jmpq   403b18 <_init+0x18>

0000000000403f98 <_ZN18ACE_Thread_Manager8instanceEv@plt>:
  403f98:	ff 25 8a 86 22 00    	jmpq   *2262666(%rip)        # 62c628 <_GLOBAL_OFFSET_TABLE_+0x250>
  403f9e:	68 47 00 00 00       	pushq  $0x47
  403fa3:	e9 70 fb ff ff       	jmpq   403b18 <_init+0x18>

0000000000403fa8 <strrchr@plt>:
  403fa8:	ff 25 82 86 22 00    	jmpq   *2262658(%rip)        # 62c630 <_GLOBAL_OFFSET_TABLE_+0x258>
  403fae:	68 48 00 00 00       	pushq  $0x48
  403fb3:	e9 60 fb ff ff       	jmpq   403b18 <_init+0x18>

0000000000403fb8 <_ZN16ACE_Thread_MutexD1Ev@plt>:
  403fb8:	ff 25 7a 86 22 00    	jmpq   *2262650(%rip)        # 62c638 <_GLOBAL_OFFSET_TABLE_+0x260>
  403fbe:	68 49 00 00 00       	pushq  $0x49
  403fc3:	e9 50 fb ff ff       	jmpq   403b18 <_init+0x18>

0000000000403fc8 <fputs@plt>:
  403fc8:	ff 25 72 86 22 00    	jmpq   *2262642(%rip)        # 62c640 <_GLOBAL_OFFSET_TABLE_+0x268>
  403fce:	68 4a 00 00 00       	pushq  $0x4a
  403fd3:	e9 40 fb ff ff       	jmpq   403b18 <_init+0x18>

0000000000403fd8 <SSL_peek@plt>:
  403fd8:	ff 25 6a 86 22 00    	jmpq   *2262634(%rip)        # 62c648 <_GLOBAL_OFFSET_TABLE_+0x270>
  403fde:	68 4b 00 00 00       	pushq  $0x4b
  403fe3:	e9 30 fb ff ff       	jmpq   403b18 <_init+0x18>

0000000000403fe8 <_ZN17ACE_MEM_Connector7connectER14ACE_MEM_StreamRK13ACE_INET_AddrP14ACE_Time_ValueRK8ACE_Addriii@plt>:
  403fe8:	ff 25 62 86 22 00    	jmpq   *2262626(%rip)        # 62c650 <_GLOBAL_OFFSET_TABLE_+0x278>
  403fee:	68 4c 00 00 00       	pushq  $0x4c
  403ff3:	e9 20 fb ff ff       	jmpq   403b18 <_init+0x18>

0000000000403ff8 <_ZN3ACE8recv_n_iEiPvmPm@plt>:
  403ff8:	ff 25 5a 86 22 00    	jmpq   *2262618(%rip)        # 62c658 <_GLOBAL_OFFSET_TABLE_+0x280>
  403ffe:	68 4d 00 00 00       	pushq  $0x4d
  404003:	e9 10 fb ff ff       	jmpq   403b18 <_init+0x18>

0000000000404008 <_ZNK12ACE_MEM_Addr14addr_to_stringEPcmi@plt>:
  404008:	ff 25 52 86 22 00    	jmpq   *2262610(%rip)        # 62c660 <_GLOBAL_OFFSET_TABLE_+0x288>
  40400e:	68 4e 00 00 00       	pushq  $0x4e
  404013:	e9 00 fb ff ff       	jmpq   403b18 <_init+0x18>

0000000000404018 <SSL_pending@plt>:
  404018:	ff 25 4a 86 22 00    	jmpq   *2262602(%rip)        # 62c668 <_GLOBAL_OFFSET_TABLE_+0x290>
  40401e:	68 4f 00 00 00       	pushq  $0x4f
  404023:	e9 f0 fa ff ff       	jmpq   403b18 <_init+0x18>

0000000000404028 <_ZNK20ACE_MMAP_Memory_Pool9base_addrEv@plt>:
  404028:	ff 25 42 86 22 00    	jmpq   *2262594(%rip)        # 62c670 <_GLOBAL_OFFSET_TABLE_+0x298>
  40402e:	68 50 00 00 00       	pushq  $0x50
  404033:	e9 e0 fa ff ff       	jmpq   403b18 <_init+0x18>

0000000000404038 <fflush@plt>:
  404038:	ff 25 3a 86 22 00    	jmpq   *2262586(%rip)        # 62c678 <_GLOBAL_OFFSET_TABLE_+0x2a0>
  40403e:	68 51 00 00 00       	pushq  $0x51
  404043:	e9 d0 fa ff ff       	jmpq   403b18 <_init+0x18>

0000000000404048 <fopen@plt>:
  404048:	ff 25 32 86 22 00    	jmpq   *2262578(%rip)        # 62c680 <_GLOBAL_OFFSET_TABLE_+0x2a8>
  40404e:	68 52 00 00 00       	pushq  $0x52
  404053:	e9 c0 fa ff ff       	jmpq   403b18 <_init+0x18>

0000000000404058 <_ZNK19ACE_SSL_SOCK_Stream4recvEPvmiPK14ACE_Time_Value@plt>:
  404058:	ff 25 2a 86 22 00    	jmpq   *2262570(%rip)        # 62c688 <_GLOBAL_OFFSET_TABLE_+0x2b0>
  40405e:	68 53 00 00 00       	pushq  $0x53
  404063:	e9 b0 fa ff ff       	jmpq   403b18 <_init+0x18>

0000000000404068 <signal@plt>:
  404068:	ff 25 22 86 22 00    	jmpq   *2262562(%rip)        # 62c690 <_GLOBAL_OFFSET_TABLE_+0x2b8>
  40406e:	68 54 00 00 00       	pushq  $0x54
  404073:	e9 a0 fa ff ff       	jmpq   403b18 <_init+0x18>

0000000000404078 <free@plt>:
  404078:	ff 25 1a 86 22 00    	jmpq   *2262554(%rip)        # 62c698 <_GLOBAL_OFFSET_TABLE_+0x2c0>
  40407e:	68 55 00 00 00       	pushq  $0x55
  404083:	e9 90 fa ff ff       	jmpq   403b18 <_init+0x18>

0000000000404088 <exit@plt>:
  404088:	ff 25 12 86 22 00    	jmpq   *2262546(%rip)        # 62c6a0 <_GLOBAL_OFFSET_TABLE_+0x2c8>
  40408e:	68 56 00 00 00       	pushq  $0x56
  404093:	e9 80 fa ff ff       	jmpq   403b18 <_init+0x18>

0000000000404098 <getenv@plt>:
  404098:	ff 25 0a 86 22 00    	jmpq   *2262538(%rip)        # 62c6a8 <_GLOBAL_OFFSET_TABLE_+0x2d0>
  40409e:	68 57 00 00 00       	pushq  $0x57
  4040a3:	e9 70 fa ff ff       	jmpq   403b18 <_init+0x18>

00000000004040a8 <SSL_shutdown@plt>:
  4040a8:	ff 25 02 86 22 00    	jmpq   *2262530(%rip)        # 62c6b0 <_GLOBAL_OFFSET_TABLE_+0x2d8>
  4040ae:	68 58 00 00 00       	pushq  $0x58
  4040b3:	e9 60 fa ff ff       	jmpq   403b18 <_init+0x18>

00000000004040b8 <_ZN19ACE_SSL_SOCK_StreamC1EP15ACE_SSL_Context@plt>:
  4040b8:	ff 25 fa 85 22 00    	jmpq   *2262522(%rip)        # 62c6b8 <_GLOBAL_OFFSET_TABLE_+0x2e0>
  4040be:	68 59 00 00 00       	pushq  $0x59
  4040c3:	e9 50 fa ff ff       	jmpq   403b18 <_init+0x18>

00000000004040c8 <_ZN3ACE4sendEiPKvmPK14ACE_Time_Value@plt>:
  4040c8:	ff 25 f2 85 22 00    	jmpq   *2262514(%rip)        # 62c6c0 <_GLOBAL_OFFSET_TABLE_+0x2e8>
  4040ce:	68 5a 00 00 00       	pushq  $0x5a
  4040d3:	e9 40 fa ff ff       	jmpq   403b18 <_init+0x18>

00000000004040d8 <_ZN28ACE_Based_Pointer_Repository4findEPvRS0_@plt>:
  4040d8:	ff 25 ea 85 22 00    	jmpq   *2262506(%rip)        # 62c6c8 <_GLOBAL_OFFSET_TABLE_+0x2f0>
  4040de:	68 5b 00 00 00       	pushq  $0x5b
  4040e3:	e9 30 fa ff ff       	jmpq   403b18 <_init+0x18>

00000000004040e8 <ntohl@plt>:
  4040e8:	ff 25 e2 85 22 00    	jmpq   *2262498(%rip)        # 62c6d0 <_GLOBAL_OFFSET_TABLE_+0x2f8>
  4040ee:	68 5c 00 00 00       	pushq  $0x5c
  4040f3:	e9 20 fa ff ff       	jmpq   403b18 <_init+0x18>

00000000004040f8 <_ZNK21ACE_SSL_SOCK_Acceptor6acceptER19ACE_SSL_SOCK_StreamP8ACE_AddrP14ACE_Time_Valueii@plt>:
  4040f8:	ff 25 da 85 22 00    	jmpq   *2262490(%rip)        # 62c6d8 <_GLOBAL_OFFSET_TABLE_+0x300>
  4040fe:	68 5d 00 00 00       	pushq  $0x5d
  404103:	e9 10 fa ff ff       	jmpq   403b18 <_init+0x18>

0000000000404108 <_ZN13ACE_INET_AddrC1Ev@plt>:
  404108:	ff 25 d2 85 22 00    	jmpq   *2262482(%rip)        # 62c6e0 <_GLOBAL_OFFSET_TABLE_+0x308>
  40410e:	68 5e 00 00 00       	pushq  $0x5e
  404113:	e9 00 fa ff ff       	jmpq   403b18 <_init+0x18>

0000000000404118 <_ZN13ACE_INET_AddrC1Etj@plt>:
  404118:	ff 25 ca 85 22 00    	jmpq   *2262474(%rip)        # 62c6e8 <_GLOBAL_OFFSET_TABLE_+0x310>
  40411e:	68 5f 00 00 00       	pushq  $0x5f
  404123:	e9 f0 f9 ff ff       	jmpq   403b18 <_init+0x18>

0000000000404128 <malloc@plt>:
  404128:	ff 25 c2 85 22 00    	jmpq   *2262466(%rip)        # 62c6f0 <_GLOBAL_OFFSET_TABLE_+0x318>
  40412e:	68 60 00 00 00       	pushq  $0x60
  404133:	e9 e0 f9 ff ff       	jmpq   403b18 <_init+0x18>

0000000000404138 <_ZN3ACE4finiEv@plt>:
  404138:	ff 25 ba 85 22 00    	jmpq   *2262458(%rip)        # 62c6f8 <_GLOBAL_OFFSET_TABLE_+0x320>
  40413e:	68 61 00 00 00       	pushq  $0x61
  404143:	e9 d0 f9 ff ff       	jmpq   403b18 <_init+0x18>

0000000000404148 <shutdown@plt>:
  404148:	ff 25 b2 85 22 00    	jmpq   *2262450(%rip)        # 62c700 <_GLOBAL_OFFSET_TABLE_+0x328>
  40414e:	68 62 00 00 00       	pushq  $0x62
  404153:	e9 c0 f9 ff ff       	jmpq   403b18 <_init+0x18>

0000000000404158 <putchar@plt>:
  404158:	ff 25 aa 85 22 00    	jmpq   *2262442(%rip)        # 62c708 <_GLOBAL_OFFSET_TABLE_+0x330>
  40415e:	68 63 00 00 00       	pushq  $0x63
  404163:	e9 b0 f9 ff ff       	jmpq   403b18 <_init+0x18>

0000000000404168 <strcmp@plt>:
  404168:	ff 25 a2 85 22 00    	jmpq   *2262434(%rip)        # 62c710 <_GLOBAL_OFFSET_TABLE_+0x338>
  40416e:	68 64 00 00 00       	pushq  $0x64
  404173:	e9 a0 f9 ff ff       	jmpq   403b18 <_init+0x18>

0000000000404178 <ioctl@plt>:
  404178:	ff 25 9a 85 22 00    	jmpq   *2262426(%rip)        # 62c718 <_GLOBAL_OFFSET_TABLE_+0x340>
  40417e:	68 65 00 00 00       	pushq  $0x65
  404183:	e9 90 f9 ff ff       	jmpq   403b18 <_init+0x18>

0000000000404188 <usleep@plt>:
  404188:	ff 25 92 85 22 00    	jmpq   *2262418(%rip)        # 62c720 <_GLOBAL_OFFSET_TABLE_+0x348>
  40418e:	68 66 00 00 00       	pushq  $0x66
  404193:	e9 80 f9 ff ff       	jmpq   403b18 <_init+0x18>

0000000000404198 <pclose@plt>:
  404198:	ff 25 8a 85 22 00    	jmpq   *2262410(%rip)        # 62c728 <_GLOBAL_OFFSET_TABLE_+0x350>
  40419e:	68 67 00 00 00       	pushq  $0x67
  4041a3:	e9 70 f9 ff ff       	jmpq   403b18 <_init+0x18>

00000000004041a8 <fprintf@plt>:
  4041a8:	ff 25 82 85 22 00    	jmpq   *2262402(%rip)        # 62c730 <_GLOBAL_OFFSET_TABLE_+0x358>
  4041ae:	68 68 00 00 00       	pushq  $0x68
  4041b3:	e9 60 f9 ff ff       	jmpq   403b18 <_init+0x18>

00000000004041b8 <_ZN3ACE20enter_recv_timedwaitEiPK14ACE_Time_ValueRi@plt>:
  4041b8:	ff 25 7a 85 22 00    	jmpq   *2262394(%rip)        # 62c738 <_GLOBAL_OFFSET_TABLE_+0x360>
  4041be:	68 69 00 00 00       	pushq  $0x69
  4041c3:	e9 50 f9 ff ff       	jmpq   403b18 <_init+0x18>

00000000004041c8 <getpid@plt>:
  4041c8:	ff 25 72 85 22 00    	jmpq   *2262386(%rip)        # 62c740 <_GLOBAL_OFFSET_TABLE_+0x368>
  4041ce:	68 6a 00 00 00       	pushq  $0x6a
  4041d3:	e9 40 f9 ff ff       	jmpq   403b18 <_init+0x18>

00000000004041d8 <fread@plt>:
  4041d8:	ff 25 6a 85 22 00    	jmpq   *2262378(%rip)        # 62c748 <_GLOBAL_OFFSET_TABLE_+0x370>
  4041de:	68 6b 00 00 00       	pushq  $0x6b
  4041e3:	e9 30 f9 ff ff       	jmpq   403b18 <_init+0x18>

00000000004041e8 <_ZN18ACE_Thread_Manager10testcancelEm@plt>:
  4041e8:	ff 25 62 85 22 00    	jmpq   *2262370(%rip)        # 62c750 <_GLOBAL_OFFSET_TABLE_+0x378>
  4041ee:	68 6c 00 00 00       	pushq  $0x6c
  4041f3:	e9 20 f9 ff ff       	jmpq   403b18 <_init+0x18>

00000000004041f8 <puts@plt>:
  4041f8:	ff 25 5a 85 22 00    	jmpq   *2262362(%rip)        # 62c758 <_GLOBAL_OFFSET_TABLE_+0x380>
  4041fe:	68 6d 00 00 00       	pushq  $0x6d
  404203:	e9 10 f9 ff ff       	jmpq   403b18 <_init+0x18>

0000000000404208 <feof@plt>:
  404208:	ff 25 52 85 22 00    	jmpq   *2262354(%rip)        # 62c760 <_GLOBAL_OFFSET_TABLE_+0x388>
  40420e:	68 6e 00 00 00       	pushq  $0x6e
  404213:	e9 00 f9 ff ff       	jmpq   403b18 <_init+0x18>

0000000000404218 <_ZN3ACE25restore_non_blocking_modeEii@plt>:
  404218:	ff 25 4a 85 22 00    	jmpq   *2262346(%rip)        # 62c768 <_GLOBAL_OFFSET_TABLE_+0x390>
  40421e:	68 6f 00 00 00       	pushq  $0x6f
  404223:	e9 f0 f8 ff ff       	jmpq   403b18 <_init+0x18>

0000000000404228 <atoi@plt>:
  404228:	ff 25 42 85 22 00    	jmpq   *2262338(%rip)        # 62c770 <_GLOBAL_OFFSET_TABLE_+0x398>
  40422e:	68 70 00 00 00       	pushq  $0x70
  404233:	e9 e0 f8 ff ff       	jmpq   403b18 <_init+0x18>

0000000000404238 <strtok@plt>:
  404238:	ff 25 3a 85 22 00    	jmpq   *2262330(%rip)        # 62c778 <_GLOBAL_OFFSET_TABLE_+0x3a0>
  40423e:	68 71 00 00 00       	pushq  $0x71
  404243:	e9 d0 f8 ff ff       	jmpq   403b18 <_init+0x18>

0000000000404248 <_ZN18ACE_Thread_Manager10cancel_allEi@plt>:
  404248:	ff 25 32 85 22 00    	jmpq   *2262322(%rip)        # 62c780 <_GLOBAL_OFFSET_TABLE_+0x3a8>
  40424e:	68 72 00 00 00       	pushq  $0x72
  404253:	e9 c0 f8 ff ff       	jmpq   403b18 <_init+0x18>

0000000000404258 <fgets@plt>:
  404258:	ff 25 2a 85 22 00    	jmpq   *2262314(%rip)        # 62c788 <_GLOBAL_OFFSET_TABLE_+0x3b0>
  40425e:	68 73 00 00 00       	pushq  $0x73
  404263:	e9 b0 f8 ff ff       	jmpq   403b18 <_init+0x18>

0000000000404268 <_ZN15ACE_SOCK_Stream5closeEv@plt>:
  404268:	ff 25 22 85 22 00    	jmpq   *2262306(%rip)        # 62c790 <_GLOBAL_OFFSET_TABLE_+0x3b8>
  40426e:	68 74 00 00 00       	pushq  $0x74
  404273:	e9 a0 f8 ff ff       	jmpq   403b18 <_init+0x18>

0000000000404278 <_ZN15ACE_SSL_Context12report_errorEv@plt>:
  404278:	ff 25 1a 85 22 00    	jmpq   *2262298(%rip)        # 62c798 <_GLOBAL_OFFSET_TABLE_+0x3c0>
  40427e:	68 75 00 00 00       	pushq  $0x75
  404283:	e9 90 f8 ff ff       	jmpq   403b18 <_init+0x18>

0000000000404288 <_ZN16ACE_MEM_AcceptorC1Ev@plt>:
  404288:	ff 25 12 85 22 00    	jmpq   *2262290(%rip)        # 62c7a0 <_GLOBAL_OFFSET_TABLE_+0x3c8>
  40428e:	68 76 00 00 00       	pushq  $0x76
  404293:	e9 80 f8 ff ff       	jmpq   403b18 <_init+0x18>

0000000000404298 <_ZN6ACE_OS10mutex_lockEP15pthread_mutex_t@plt>:
  404298:	ff 25 0a 85 22 00    	jmpq   *2262282(%rip)        # 62c7a8 <_GLOBAL_OFFSET_TABLE_+0x3d0>
  40429e:	68 77 00 00 00       	pushq  $0x77
  4042a3:	e9 70 f8 ff ff       	jmpq   403b18 <_init+0x18>

00000000004042a8 <__gxx_personality_v0@plt>:
  4042a8:	ff 25 02 85 22 00    	jmpq   *2262274(%rip)        # 62c7b0 <_GLOBAL_OFFSET_TABLE_+0x3d8>
  4042ae:	68 78 00 00 00       	pushq  $0x78
  4042b3:	e9 60 f8 ff ff       	jmpq   403b18 <_init+0x18>

00000000004042b8 <_ZN3ACE4initEv@plt>:
  4042b8:	ff 25 fa 84 22 00    	jmpq   *2262266(%rip)        # 62c7b8 <_GLOBAL_OFFSET_TABLE_+0x3e0>
  4042be:	68 79 00 00 00       	pushq  $0x79
  4042c3:	e9 50 f8 ff ff       	jmpq   403b18 <_init+0x18>

00000000004042c8 <access@plt>:
  4042c8:	ff 25 f2 84 22 00    	jmpq   *2262258(%rip)        # 62c7c0 <_GLOBAL_OFFSET_TABLE_+0x3e8>
  4042ce:	68 7a 00 00 00       	pushq  $0x7a
  4042d3:	e9 40 f8 ff ff       	jmpq   403b18 <_init+0x18>

00000000004042d8 <_ZN14ACE_Time_Value9normalizeEv@plt>:
  4042d8:	ff 25 ea 84 22 00    	jmpq   *2262250(%rip)        # 62c7c8 <_GLOBAL_OFFSET_TABLE_+0x3f0>
  4042de:	68 7b 00 00 00       	pushq  $0x7b
  4042e3:	e9 30 f8 ff ff       	jmpq   403b18 <_init+0x18>

00000000004042e8 <memcpy@plt>:
  4042e8:	ff 25 e2 84 22 00    	jmpq   *2262242(%rip)        # 62c7d0 <_GLOBAL_OFFSET_TABLE_+0x3f8>
  4042ee:	68 7c 00 00 00       	pushq  $0x7c
  4042f3:	e9 20 f8 ff ff       	jmpq   403b18 <_init+0x18>

00000000004042f8 <_ZN12ACE_SSL_SOCKC2Ev@plt>:
  4042f8:	ff 25 da 84 22 00    	jmpq   *2262234(%rip)        # 62c7d8 <_GLOBAL_OFFSET_TABLE_+0x400>
  4042fe:	68 7d 00 00 00       	pushq  $0x7d
  404303:	e9 10 f8 ff ff       	jmpq   403b18 <_init+0x18>

0000000000404308 <_Unwind_Resume@plt>:
  404308:	ff 25 d2 84 22 00    	jmpq   *2262226(%rip)        # 62c7e0 <_GLOBAL_OFFSET_TABLE_+0x408>
  40430e:	68 7e 00 00 00       	pushq  $0x7e
  404313:	e9 00 f8 ff ff       	jmpq   403b18 <_init+0x18>

0000000000404318 <_ZN18ACE_Thread_Manager4waitEPK14ACE_Time_Valuebb@plt>:
  404318:	ff 25 ca 84 22 00    	jmpq   *2262218(%rip)        # 62c7e8 <_GLOBAL_OFFSET_TABLE_+0x410>
  40431e:	68 7f 00 00 00       	pushq  $0x7f
  404323:	e9 f0 f7 ff ff       	jmpq   403b18 <_init+0x18>

0000000000404328 <_ZN10ACE_MEM_IO4finiEv@plt>:
  404328:	ff 25 c2 84 22 00    	jmpq   *2262210(%rip)        # 62c7f0 <_GLOBAL_OFFSET_TABLE_+0x418>
  40432e:	68 80 00 00 00       	pushq  $0x80
  404333:	e9 e0 f7 ff ff       	jmpq   403b18 <_init+0x18>

0000000000404338 <strcat@plt>:
  404338:	ff 25 ba 84 22 00    	jmpq   *2262202(%rip)        # 62c7f8 <_GLOBAL_OFFSET_TABLE_+0x420>
  40433e:	68 81 00 00 00       	pushq  $0x81
  404343:	e9 d0 f7 ff ff       	jmpq   403b18 <_init+0x18>

0000000000404348 <umask@plt>:
  404348:	ff 25 b2 84 22 00    	jmpq   *2262194(%rip)        # 62c800 <_GLOBAL_OFFSET_TABLE_+0x428>
  40434e:	68 82 00 00 00       	pushq  $0x82
  404353:	e9 c0 f7 ff ff       	jmpq   403b18 <_init+0x18>

0000000000404358 <setsockopt@plt>:
  404358:	ff 25 aa 84 22 00    	jmpq   *2262186(%rip)        # 62c808 <_GLOBAL_OFFSET_TABLE_+0x430>
  40435e:	68 83 00 00 00       	pushq  $0x83
  404363:	e9 b0 f7 ff ff       	jmpq   403b18 <_init+0x18>

0000000000404368 <SSL_write@plt>:
  404368:	ff 25 a2 84 22 00    	jmpq   *2262178(%rip)        # 62c810 <_GLOBAL_OFFSET_TABLE_+0x438>
  40436e:	68 84 00 00 00       	pushq  $0x84
  404373:	e9 a0 f7 ff ff       	jmpq   403b18 <_init+0x18>

0000000000404378 <SSL_set_fd@plt>:
  404378:	ff 25 9a 84 22 00    	jmpq   *2262170(%rip)        # 62c818 <_GLOBAL_OFFSET_TABLE_+0x440>
  40437e:	68 85 00 00 00       	pushq  $0x85
  404383:	e9 90 f7 ff ff       	jmpq   403b18 <_init+0x18>

0000000000404388 <_ZN6ACE_OS6mallocEm@plt>:
  404388:	ff 25 92 84 22 00    	jmpq   *2262162(%rip)        # 62c820 <_GLOBAL_OFFSET_TABLE_+0x448>
  40438e:	68 86 00 00 00       	pushq  $0x86
  404393:	e9 80 f7 ff ff       	jmpq   403b18 <_init+0x18>

0000000000404398 <ntohs@plt>:
  404398:	ff 25 8a 84 22 00    	jmpq   *2262154(%rip)        # 62c828 <_GLOBAL_OFFSET_TABLE_+0x450>
  40439e:	68 87 00 00 00       	pushq  $0x87
  4043a3:	e9 70 f7 ff ff       	jmpq   403b18 <_init+0x18>

00000000004043a8 <_Z12__ace_assertPKciS0_@plt>:
  4043a8:	ff 25 82 84 22 00    	jmpq   *2262146(%rip)        # 62c830 <_GLOBAL_OFFSET_TABLE_+0x458>
  4043ae:	68 88 00 00 00       	pushq  $0x88
  4043b3:	e9 60 f7 ff ff       	jmpq   403b18 <_init+0x18>

00000000004043b8 <_ZNK8ACE_SOCK15get_remote_addrER8ACE_Addr@plt>:
  4043b8:	ff 25 7a 84 22 00    	jmpq   *2262138(%rip)        # 62c838 <_GLOBAL_OFFSET_TABLE_+0x460>
  4043be:	68 89 00 00 00       	pushq  $0x89
  4043c3:	e9 50 f7 ff ff       	jmpq   403b18 <_init+0x18>

00000000004043c8 <toupper@plt>:
  4043c8:	ff 25 72 84 22 00    	jmpq   *2262130(%rip)        # 62c840 <_GLOBAL_OFFSET_TABLE_+0x468>
  4043ce:	68 8a 00 00 00       	pushq  $0x8a
  4043d3:	e9 40 f7 ff ff       	jmpq   403b18 <_init+0x18>

00000000004043d8 <_ZN16ACE_MEM_AcceptorD1Ev@plt>:
  4043d8:	ff 25 6a 84 22 00    	jmpq   *2262122(%rip)        # 62c848 <_GLOBAL_OFFSET_TABLE_+0x470>
  4043de:	68 8b 00 00 00       	pushq  $0x8b
  4043e3:	e9 30 f7 ff ff       	jmpq   403b18 <_init+0x18>

00000000004043e8 <_ZNK11ACE_IPC_SAP7disableEi@plt>:
  4043e8:	ff 25 62 84 22 00    	jmpq   *2262114(%rip)        # 62c850 <_GLOBAL_OFFSET_TABLE_+0x478>
  4043ee:	68 8c 00 00 00       	pushq  $0x8c
  4043f3:	e9 20 f7 ff ff       	jmpq   403b18 <_init+0x18>

00000000004043f8 <__libc_start_main@plt>:
  4043f8:	ff 25 5a 84 22 00    	jmpq   *2262106(%rip)        # 62c858 <_GLOBAL_OFFSET_TABLE_+0x480>
  4043fe:	68 8d 00 00 00       	pushq  $0x8d
  404403:	e9 10 f7 ff ff       	jmpq   403b18 <_init+0x18>

0000000000404408 <_ZNK19ACE_SSL_SOCK_Stream15get_remote_addrER8ACE_Addr@plt>:
  404408:	ff 25 52 84 22 00    	jmpq   *2262098(%rip)        # 62c860 <_GLOBAL_OFFSET_TABLE_+0x488>
  40440e:	68 8e 00 00 00       	pushq  $0x8e
  404413:	e9 00 f7 ff ff       	jmpq   403b18 <_init+0x18>

0000000000404418 <fwrite@plt>:
  404418:	ff 25 4a 84 22 00    	jmpq   *2262090(%rip)        # 62c868 <_GLOBAL_OFFSET_TABLE_+0x490>
  40441e:	68 8f 00 00 00       	pushq  $0x8f
  404423:	e9 f0 f6 ff ff       	jmpq   403b18 <_init+0x18>

0000000000404428 <close@plt>:
  404428:	ff 25 42 84 22 00    	jmpq   *2262082(%rip)        # 62c870 <_GLOBAL_OFFSET_TABLE_+0x498>
  40442e:	68 90 00 00 00       	pushq  $0x90
  404433:	e9 e0 f6 ff ff       	jmpq   403b18 <_init+0x18>

0000000000404438 <_ZN21ACE_SSL_SOCK_AcceptorD1Ev@plt>:
  404438:	ff 25 3a 84 22 00    	jmpq   *2262074(%rip)        # 62c878 <_GLOBAL_OFFSET_TABLE_+0x4a0>
  40443e:	68 91 00 00 00       	pushq  $0x91
  404443:	e9 d0 f6 ff ff       	jmpq   403b18 <_init+0x18>

0000000000404448 <_ZN16ACE_Thread_MutexC1EPKcP19pthread_mutexattr_t@plt>:
  404448:	ff 25 32 84 22 00    	jmpq   *2262066(%rip)        # 62c880 <_GLOBAL_OFFSET_TABLE_+0x4a8>
  40444e:	68 92 00 00 00       	pushq  $0x92
  404453:	e9 c0 f6 ff ff       	jmpq   403b18 <_init+0x18>
Disassembly of section .text:

0000000000404460 <_start>:
  404460:	31 ed                	xor    %ebp,%ebp
  404462:	49 89 d1             	mov    %rdx,%r9
  404465:	5e                   	pop    %rsi
  404466:	48 89 e2             	mov    %rsp,%rdx
  404469:	48 83 e4 f0          	and    $0xfffffffffffffff0,%rsp
  40446d:	50                   	push   %rax
  40446e:	54                   	push   %rsp
  40446f:	49 c7 c0 e0 6b 42 00 	mov    $0x426be0,%r8
  404476:	48 c7 c1 f0 6b 42 00 	mov    $0x426bf0,%rcx
  40447d:	48 c7 c7 e8 86 40 00 	mov    $0x4086e8,%rdi
  404484:	e8 6f ff ff ff       	callq  4043f8 <__libc_start_main@plt>
  404489:	f4                   	hlt    
  40448a:	90                   	nop    
  40448b:	90                   	nop    

000000000040448c <call_gmon_start>:
  40448c:	48 83 ec 08          	sub    $0x8,%rsp
  404490:	48 8b 05 31 7f 22 00 	mov    2260785(%rip),%rax        # 62c3c8 <_DYNAMIC+0x398>
  404497:	48 85 c0             	test   %rax,%rax
  40449a:	74 02                	je     40449e <call_gmon_start+0x12>
  40449c:	ff d0                	callq  *%rax
  40449e:	48 83 c4 08          	add    $0x8,%rsp
  4044a2:	c3                   	retq   
  4044a3:	90                   	nop    
  4044a4:	90                   	nop    
  4044a5:	90                   	nop    
  4044a6:	90                   	nop    
  4044a7:	90                   	nop    
  4044a8:	90                   	nop    
  4044a9:	90                   	nop    
  4044aa:	90                   	nop    
  4044ab:	90                   	nop    
  4044ac:	90                   	nop    
  4044ad:	90                   	nop    
  4044ae:	90                   	nop    
  4044af:	90                   	nop    

00000000004044b0 <__do_global_dtors_aux>:
  4044b0:	55                   	push   %rbp
  4044b1:	48 89 e5             	mov    %rsp,%rbp
  4044b4:	53                   	push   %rbx
  4044b5:	48 83 ec 08          	sub    $0x8,%rsp
  4044b9:	80 3d e8 88 22 00 00 	cmpb   $0x0,2263272(%rip)        # 62cda8 <completed.6145>
  4044c0:	75 44                	jne    404506 <__do_global_dtors_aux+0x56>
  4044c2:	b8 20 c0 62 00       	mov    $0x62c020,%eax
  4044c7:	48 2d 18 c0 62 00    	sub    $0x62c018,%rax
  4044cd:	48 c1 f8 03          	sar    $0x3,%rax
  4044d1:	48 8d 58 ff          	lea    0xffffffffffffffff(%rax),%rbx
  4044d5:	48 8b 05 c4 88 22 00 	mov    2263236(%rip),%rax        # 62cda0 <dtor_idx.6147>
  4044dc:	48 39 c3             	cmp    %rax,%rbx
  4044df:	76 1e                	jbe    4044ff <__do_global_dtors_aux+0x4f>
  4044e1:	48 83 c0 01          	add    $0x1,%rax
  4044e5:	48 89 05 b4 88 22 00 	mov    %rax,2263220(%rip)        # 62cda0 <dtor_idx.6147>
  4044ec:	ff 14 c5 18 c0 62 00 	callq  *0x62c018(,%rax,8)
  4044f3:	48 8b 05 a6 88 22 00 	mov    2263206(%rip),%rax        # 62cda0 <dtor_idx.6147>
  4044fa:	48 39 c3             	cmp    %rax,%rbx
  4044fd:	77 e2                	ja     4044e1 <__do_global_dtors_aux+0x31>
  4044ff:	c6 05 a2 88 22 00 01 	movb   $0x1,2263202(%rip)        # 62cda8 <completed.6145>
  404506:	48 83 c4 08          	add    $0x8,%rsp
  40450a:	5b                   	pop    %rbx
  40450b:	c9                   	leaveq 
  40450c:	c3                   	retq   
  40450d:	0f 1f 00             	nopl   (%rax)

0000000000404510 <frame_dummy>:
  404510:	55                   	push   %rbp
  404511:	48 83 3d 0f 7b 22 00 	cmpq   $0x0,2259727(%rip)        # 62c028 <__JCR_END__>
  404518:	00 
  404519:	48 89 e5             	mov    %rsp,%rbp
  40451c:	74 16                	je     404534 <frame_dummy+0x24>
  40451e:	b8 00 00 00 00       	mov    $0x0,%eax
  404523:	48 85 c0             	test   %rax,%rax
  404526:	74 0c                	je     404534 <frame_dummy+0x24>
  404528:	bf 28 c0 62 00       	mov    $0x62c028,%edi
  40452d:	49 89 c3             	mov    %rax,%r11
  404530:	c9                   	leaveq 
  404531:	41 ff e3             	jmpq   *%r11
  404534:	c9                   	leaveq 
  404535:	c3                   	retq   
  404536:	90                   	nop    
  404537:	90                   	nop    

0000000000404538 <_Z10trim_rightPc>:
  404538:	55                   	push   %rbp
  404539:	48 89 e5             	mov    %rsp,%rbp
  40453c:	48 83 ec 20          	sub    $0x20,%rsp
  404540:	48 89 7d e8          	mov    %rdi,0xffffffffffffffe8(%rbp)
  404544:	48 8b 45 e8          	mov    0xffffffffffffffe8(%rbp),%rax
  404548:	48 89 45 f8          	mov    %rax,0xfffffffffffffff8(%rbp)
  40454c:	eb 05                	jmp    404553 <_Z10trim_rightPc+0x1b>
  40454e:	48 83 45 f8 01       	addq   $0x1,0xfffffffffffffff8(%rbp)
  404553:	48 8b 45 f8          	mov    0xfffffffffffffff8(%rbp),%rax
  404557:	0f b6 00             	movzbl (%rax),%eax
  40455a:	0f be f8             	movsbl %al,%edi
  40455d:	e8 26 f6 ff ff       	callq  403b88 <isspace@plt>
  404562:	85 c0                	test   %eax,%eax
  404564:	75 e8                	jne    40454e <_Z10trim_rightPc+0x16>
  404566:	48 8b 45 f8          	mov    0xfffffffffffffff8(%rbp),%rax
  40456a:	48 3b 45 e8          	cmp    0xffffffffffffffe8(%rbp),%rax
  40456e:	74 0d                	je     40457d <_Z10trim_rightPc+0x45>
  404570:	48 8b 75 f8          	mov    0xfffffffffffffff8(%rbp),%rsi
  404574:	48 8b 7d e8          	mov    0xffffffffffffffe8(%rbp),%rdi
  404578:	e8 6b f9 ff ff       	callq  403ee8 <strcpy@plt>
  40457d:	48 8b 45 e8          	mov    0xffffffffffffffe8(%rbp),%rax
  404581:	c9                   	leaveq 
  404582:	c3                   	retq   
  404583:	90                   	nop    

0000000000404584 <_Z9trim_leftPc>:
  404584:	55                   	push   %rbp
  404585:	48 89 e5             	mov    %rsp,%rbp
  404588:	48 83 ec 20          	sub    $0x20,%rsp
  40458c:	48 89 7d e8          	mov    %rdi,0xffffffffffffffe8(%rbp)
  404590:	48 8b 45 e8          	mov    0xffffffffffffffe8(%rbp),%rax
  404594:	48 c7 c1 ff ff ff ff 	mov    $0xffffffffffffffff,%rcx
  40459b:	48 89 45 e0          	mov    %rax,0xffffffffffffffe0(%rbp)
  40459f:	b8 00 00 00 00       	mov    $0x0,%eax
  4045a4:	fc                   	cld    
  4045a5:	48 8b 7d e0          	mov    0xffffffffffffffe0(%rbp),%rdi
  4045a9:	f2 ae                	repnz scas %es:(%rdi),%al
  4045ab:	48 89 c8             	mov    %rcx,%rax
  4045ae:	48 f7 d0             	not    %rax
  4045b1:	48 83 e8 01          	sub    $0x1,%rax
  4045b5:	89 45 fc             	mov    %eax,0xfffffffffffffffc(%rbp)
  4045b8:	eb 18                	jmp    4045d2 <_Z9trim_leftPc+0x4e>
  4045ba:	48 8b 55 e8          	mov    0xffffffffffffffe8(%rbp),%rdx
  4045be:	48 83 ea 01          	sub    $0x1,%rdx
  4045c2:	8b 45 fc             	mov    0xfffffffffffffffc(%rbp),%eax
  4045c5:	48 98                	cltq   
  4045c7:	48 8d 04 02          	lea    (%rdx,%rax,1),%rax
  4045cb:	c6 00 00             	movb   $0x0,(%rax)
  4045ce:	83 6d fc 01          	subl   $0x1,0xfffffffffffffffc(%rbp)
  4045d2:	83 7d fc 00          	cmpl   $0x0,0xfffffffffffffffc(%rbp)
  4045d6:	7e 20                	jle    4045f8 <_Z9trim_leftPc+0x74>
  4045d8:	48 8b 55 e8          	mov    0xffffffffffffffe8(%rbp),%rdx
  4045dc:	48 83 ea 01          	sub    $0x1,%rdx
  4045e0:	8b 45 fc             	mov    0xfffffffffffffffc(%rbp),%eax
  4045e3:	48 98                	cltq   
  4045e5:	48 8d 04 02          	lea    (%rdx,%rax,1),%rax
  4045e9:	0f b6 00             	movzbl (%rax),%eax
  4045ec:	0f be f8             	movsbl %al,%edi
  4045ef:	e8 94 f5 ff ff       	callq  403b88 <isspace@plt>
  4045f4:	85 c0                	test   %eax,%eax
  4045f6:	75 c2                	jne    4045ba <_Z9trim_leftPc+0x36>
  4045f8:	48 8b 45 e8          	mov    0xffffffffffffffe8(%rbp),%rax
  4045fc:	c9                   	leaveq 
  4045fd:	c3                   	retq   

00000000004045fe <_Z4trimPc>:
  4045fe:	55                   	push   %rbp
  4045ff:	48 89 e5             	mov    %rsp,%rbp
  404602:	48 83 ec 10          	sub    $0x10,%rsp
  404606:	48 89 7d f8          	mov    %rdi,0xfffffffffffffff8(%rbp)
  40460a:	48 8b 7d f8          	mov    0xfffffffffffffff8(%rbp),%rdi
  40460e:	e8 25 ff ff ff       	callq  404538 <_Z10trim_rightPc>
  404613:	48 89 c7             	mov    %rax,%rdi
  404616:	e8 69 ff ff ff       	callq  404584 <_Z9trim_leftPc>
  40461b:	c9                   	leaveq 
  40461c:	c3                   	retq   
  40461d:	90                   	nop    
  40461e:	90                   	nop    
  40461f:	90                   	nop    

0000000000404620 <odcp_get_remote_ip>:
  404620:	55                   	push   %rbp
  404621:	48 89 e5             	mov    %rsp,%rbp
  404624:	53                   	push   %rbx
  404625:	48 81 ec b8 00 00 00 	sub    $0xb8,%rsp
  40462c:	48 89 bd 58 ff ff ff 	mov    %rdi,0xffffffffffffff58(%rbp)
  404633:	48 8d 7d b0          	lea    0xffffffffffffffb0(%rbp),%rdi
  404637:	e8 cc fa ff ff       	callq  404108 <_ZN13ACE_INET_AddrC1Ev@plt>
  40463c:	48 8d bd 60 ff ff ff 	lea    0xffffffffffffff60(%rbp),%rdi
  404643:	e8 00 f9 ff ff       	callq  403f48 <_ZN12ACE_MEM_AddrC1Ev@plt>
  404648:	c7 45 d4 00 00 00 00 	movl   $0x0,0xffffffffffffffd4(%rbp)
  40464f:	48 8b 45 10          	mov    0x10(%rbp),%rax
  404653:	48 85 c0             	test   %rax,%rax
  404656:	74 0a                	je     404662 <odcp_get_remote_ip+0x42>
  404658:	48 83 bd 58 ff ff ff 	cmpq   $0x0,0xffffffffffffff58(%rbp)
  40465f:	00 
  404660:	75 0f                	jne    404671 <odcp_get_remote_ip+0x51>
  404662:	c7 85 54 ff ff ff ff 	movl   $0xffffffff,0xffffffffffffff54(%rbp)
  404669:	ff ff ff 
  40466c:	e9 ab 01 00 00       	jmpq   40481c <odcp_get_remote_ip+0x1fc>
  404671:	8b 45 18             	mov    0x18(%rbp),%eax
  404674:	85 c0                	test   %eax,%eax
  404676:	74 0c                	je     404684 <odcp_get_remote_ip+0x64>
  404678:	8b 45 18             	mov    0x18(%rbp),%eax
  40467b:	83 f8 01             	cmp    $0x1,%eax
  40467e:	0f 85 ed 00 00 00    	jne    404771 <odcp_get_remote_ip+0x151>
  404684:	48 8b 05 2d 7d 22 00 	mov    2260269(%rip),%rax        # 62c3b8 <_DYNAMIC+0x388>
  40468b:	0f b6 00             	movzbl (%rax),%eax
  40468e:	84 c0                	test   %al,%al
  404690:	75 71                	jne    404703 <odcp_get_remote_ip+0xe3>
  404692:	48 8b 45 10          	mov    0x10(%rbp),%rax
  404696:	48 89 c7             	mov    %rax,%rdi
  404699:	48 8d 75 b0          	lea    0xffffffffffffffb0(%rbp),%rsi
  40469d:	e8 16 fd ff ff       	callq  4043b8 <_ZNK8ACE_SOCK15get_remote_addrER8ACE_Addr@plt>
  4046a2:	c1 e8 1f             	shr    $0x1f,%eax
  4046a5:	84 c0                	test   %al,%al
  4046a7:	74 0c                	je     4046b5 <odcp_get_remote_ip+0x95>
  4046a9:	c7 45 d4 ff ff ff ff 	movl   $0xffffffff,0xffffffffffffffd4(%rbp)
  4046b0:	e9 39 01 00 00       	jmpq   4047ee <odcp_get_remote_ip+0x1ce>
  4046b5:	48 8b b5 58 ff ff ff 	mov    0xffffffffffffff58(%rbp),%rsi
  4046bc:	48 8d 7d b0          	lea    0xffffffffffffffb0(%rbp),%rdi
  4046c0:	b9 01 00 00 00       	mov    $0x1,%ecx
  4046c5:	ba 10 00 00 00       	mov    $0x10,%edx
  4046ca:	e8 19 f5 ff ff       	callq  403be8 <_ZNK13ACE_INET_Addr14addr_to_stringEPcmi@plt>
  4046cf:	48 8b bd 58 ff ff ff 	mov    0xffffffffffffff58(%rbp),%rdi
  4046d6:	be 3a 00 00 00       	mov    $0x3a,%esi
  4046db:	e8 88 f5 ff ff       	callq  403c68 <strchr@plt>
  4046e0:	48 89 45 d8          	mov    %rax,0xffffffffffffffd8(%rbp)
  4046e4:	48 83 7d d8 00       	cmpq   $0x0,0xffffffffffffffd8(%rbp)
  4046e9:	75 0c                	jne    4046f7 <odcp_get_remote_ip+0xd7>
  4046eb:	c7 45 d4 ff ff ff ff 	movl   $0xffffffff,0xffffffffffffffd4(%rbp)
  4046f2:	e9 f7 00 00 00       	jmpq   4047ee <odcp_get_remote_ip+0x1ce>
  4046f7:	48 8b 45 d8          	mov    0xffffffffffffffd8(%rbp),%rax
  4046fb:	c6 00 00             	movb   $0x0,(%rax)
  4046fe:	e9 eb 00 00 00       	jmpq   4047ee <odcp_get_remote_ip+0x1ce>
  404703:	48 8b 45 10          	mov    0x10(%rbp),%rax
  404707:	48 89 c7             	mov    %rax,%rdi
  40470a:	48 8d 75 b0          	lea    0xffffffffffffffb0(%rbp),%rsi
  40470e:	e8 f5 fc ff ff       	callq  404408 <_ZNK19ACE_SSL_SOCK_Stream15get_remote_addrER8ACE_Addr@plt>
  404713:	c1 e8 1f             	shr    $0x1f,%eax
  404716:	84 c0                	test   %al,%al
  404718:	74 0c                	je     404726 <odcp_get_remote_ip+0x106>
  40471a:	c7 45 d4 ff ff ff ff 	movl   $0xffffffff,0xffffffffffffffd4(%rbp)
  404721:	e9 c8 00 00 00       	jmpq   4047ee <odcp_get_remote_ip+0x1ce>
  404726:	48 8b b5 58 ff ff ff 	mov    0xffffffffffffff58(%rbp),%rsi
  40472d:	48 8d 7d b0          	lea    0xffffffffffffffb0(%rbp),%rdi
  404731:	b9 01 00 00 00       	mov    $0x1,%ecx
  404736:	ba 10 00 00 00       	mov    $0x10,%edx
  40473b:	e8 a8 f4 ff ff       	callq  403be8 <_ZNK13ACE_INET_Addr14addr_to_stringEPcmi@plt>
  404740:	48 8b bd 58 ff ff ff 	mov    0xffffffffffffff58(%rbp),%rdi
  404747:	be 3a 00 00 00       	mov    $0x3a,%esi
  40474c:	e8 17 f5 ff ff       	callq  403c68 <strchr@plt>
  404751:	48 89 45 e0          	mov    %rax,0xffffffffffffffe0(%rbp)
  404755:	48 83 7d e0 00       	cmpq   $0x0,0xffffffffffffffe0(%rbp)
  40475a:	75 0c                	jne    404768 <odcp_get_remote_ip+0x148>
  40475c:	c7 45 d4 ff ff ff ff 	movl   $0xffffffff,0xffffffffffffffd4(%rbp)
  404763:	e9 86 00 00 00       	jmpq   4047ee <odcp_get_remote_ip+0x1ce>
  404768:	48 8b 45 e0          	mov    0xffffffffffffffe0(%rbp),%rax
  40476c:	c6 00 00             	movb   $0x0,(%rax)
  40476f:	eb 7d                	jmp    4047ee <odcp_get_remote_ip+0x1ce>
  404771:	8b 45 18             	mov    0x18(%rbp),%eax
  404774:	83 f8 02             	cmp    $0x2,%eax
  404777:	75 6e                	jne    4047e7 <odcp_get_remote_ip+0x1c7>
  404779:	48 8b 45 10          	mov    0x10(%rbp),%rax
  40477d:	48 89 c7             	mov    %rax,%rdi
  404780:	48 8d b5 60 ff ff ff 	lea    0xffffffffffffff60(%rbp),%rsi
  404787:	e8 4c f6 ff ff       	callq  403dd8 <_ZNK8ACE_SOCK14get_local_addrER8ACE_Addr@plt>
  40478c:	c1 e8 1f             	shr    $0x1f,%eax
  40478f:	84 c0                	test   %al,%al
  404791:	74 09                	je     40479c <odcp_get_remote_ip+0x17c>
  404793:	c7 45 d4 ff ff ff ff 	movl   $0xffffffff,0xffffffffffffffd4(%rbp)
  40479a:	eb 52                	jmp    4047ee <odcp_get_remote_ip+0x1ce>
  40479c:	48 8b b5 58 ff ff ff 	mov    0xffffffffffffff58(%rbp),%rsi
  4047a3:	48 8d bd 60 ff ff ff 	lea    0xffffffffffffff60(%rbp),%rdi
  4047aa:	b9 01 00 00 00       	mov    $0x1,%ecx
  4047af:	ba 10 00 00 00       	mov    $0x10,%edx
  4047b4:	e8 4f f8 ff ff       	callq  404008 <_ZNK12ACE_MEM_Addr14addr_to_stringEPcmi@plt>
  4047b9:	48 8b bd 58 ff ff ff 	mov    0xffffffffffffff58(%rbp),%rdi
  4047c0:	be 3a 00 00 00       	mov    $0x3a,%esi
  4047c5:	e8 9e f4 ff ff       	callq  403c68 <strchr@plt>
  4047ca:	48 89 45 e8          	mov    %rax,0xffffffffffffffe8(%rbp)
  4047ce:	48 83 7d e8 00       	cmpq   $0x0,0xffffffffffffffe8(%rbp)
  4047d3:	75 09                	jne    4047de <odcp_get_remote_ip+0x1be>
  4047d5:	c7 45 d4 ff ff ff ff 	movl   $0xffffffff,0xffffffffffffffd4(%rbp)
  4047dc:	eb 10                	jmp    4047ee <odcp_get_remote_ip+0x1ce>
  4047de:	48 8b 45 e8          	mov    0xffffffffffffffe8(%rbp),%rax
  4047e2:	c6 00 00             	movb   $0x0,(%rax)
  4047e5:	eb 07                	jmp    4047ee <odcp_get_remote_ip+0x1ce>
  4047e7:	c7 45 d4 ff ff ff ff 	movl   $0xffffffff,0xffffffffffffffd4(%rbp)
  4047ee:	8b 45 d4             	mov    0xffffffffffffffd4(%rbp),%eax
  4047f1:	89 85 54 ff ff ff    	mov    %eax,0xffffffffffffff54(%rbp)
  4047f7:	eb 23                	jmp    40481c <odcp_get_remote_ip+0x1fc>
  4047f9:	48 89 85 48 ff ff ff 	mov    %rax,0xffffffffffffff48(%rbp)
  404800:	48 8b 9d 48 ff ff ff 	mov    0xffffffffffffff48(%rbp),%rbx
  404807:	48 8d bd 60 ff ff ff 	lea    0xffffffffffffff60(%rbp),%rdi
  40480e:	e8 55 f3 ff ff       	callq  403b68 <_ZN12ACE_MEM_AddrD1Ev@plt>
  404813:	48 89 9d 48 ff ff ff 	mov    %rbx,0xffffffffffffff48(%rbp)
  40481a:	eb 2a                	jmp    404846 <odcp_get_remote_ip+0x226>
  40481c:	48 8d bd 60 ff ff ff 	lea    0xffffffffffffff60(%rbp),%rdi
  404823:	e8 40 f3 ff ff       	callq  403b68 <_ZN12ACE_MEM_AddrD1Ev@plt>
  404828:	48 8d 7d b0          	lea    0xffffffffffffffb0(%rbp),%rdi
  40482c:	e8 97 f6 ff ff       	callq  403ec8 <_ZN13ACE_INET_AddrD1Ev@plt>
  404831:	8b 85 54 ff ff ff    	mov    0xffffffffffffff54(%rbp),%eax
  404837:	89 85 50 ff ff ff    	mov    %eax,0xffffffffffffff50(%rbp)
  40483d:	eb 2a                	jmp    404869 <odcp_get_remote_ip+0x249>
  40483f:	48 89 85 48 ff ff ff 	mov    %rax,0xffffffffffffff48(%rbp)
  404846:	48 8b 9d 48 ff ff ff 	mov    0xffffffffffffff48(%rbp),%rbx
  40484d:	48 8d 7d b0          	lea    0xffffffffffffffb0(%rbp),%rdi
  404851:	e8 72 f6 ff ff       	callq  403ec8 <_ZN13ACE_INET_AddrD1Ev@plt>
  404856:	48 89 9d 48 ff ff ff 	mov    %rbx,0xffffffffffffff48(%rbp)
  40485d:	48 8b bd 48 ff ff ff 	mov    0xffffffffffffff48(%rbp),%rdi
  404864:	e8 9f fa ff ff       	callq  404308 <_Unwind_Resume@plt>
  404869:	8b 85 50 ff ff ff    	mov    0xffffffffffffff50(%rbp),%eax
  40486f:	48 81 c4 b8 00 00 00 	add    $0xb8,%rsp
  404876:	5b                   	pop    %rbx
  404877:	c9                   	leaveq 
  404878:	c3                   	retq   
  404879:	90                   	nop    

000000000040487a <odcp_get_remote_hostname>:
  40487a:	55                   	push   %rbp
  40487b:	48 89 e5             	mov    %rsp,%rbp
  40487e:	53                   	push   %rbx
  40487f:	48 81 ec a8 00 00 00 	sub    $0xa8,%rsp
  404886:	48 8d 7d c0          	lea    0xffffffffffffffc0(%rbp),%rdi
  40488a:	e8 79 f8 ff ff       	callq  404108 <_ZN13ACE_INET_AddrC1Ev@plt>
  40488f:	48 8d bd 70 ff ff ff 	lea    0xffffffffffffff70(%rbp),%rdi
  404896:	e8 ad f6 ff ff       	callq  403f48 <_ZN12ACE_MEM_AddrC1Ev@plt>
  40489b:	48 c7 45 e8 00 00 00 	movq   $0x0,0xffffffffffffffe8(%rbp)
  4048a2:	00 
  4048a3:	48 8b 45 10          	mov    0x10(%rbp),%rax
  4048a7:	48 85 c0             	test   %rax,%rax
  4048aa:	75 10                	jne    4048bc <odcp_get_remote_hostname+0x42>
  4048ac:	48 8b 45 e8          	mov    0xffffffffffffffe8(%rbp),%rax
  4048b0:	48 89 85 68 ff ff ff 	mov    %rax,0xffffffffffffff68(%rbp)
  4048b7:	e9 f6 00 00 00       	jmpq   4049b2 <odcp_get_remote_hostname+0x138>
  4048bc:	8b 45 18             	mov    0x18(%rbp),%eax
  4048bf:	85 c0                	test   %eax,%eax
  4048c1:	74 08                	je     4048cb <odcp_get_remote_hostname+0x51>
  4048c3:	8b 45 18             	mov    0x18(%rbp),%eax
  4048c6:	83 f8 01             	cmp    $0x1,%eax
  4048c9:	75 71                	jne    40493c <odcp_get_remote_hostname+0xc2>
  4048cb:	48 8b 05 e6 7a 22 00 	mov    2259686(%rip),%rax        # 62c3b8 <_DYNAMIC+0x388>
  4048d2:	0f b6 00             	movzbl (%rax),%eax
  4048d5:	84 c0                	test   %al,%al
  4048d7:	75 33                	jne    40490c <odcp_get_remote_hostname+0x92>
  4048d9:	48 8b 45 10          	mov    0x10(%rbp),%rax
  4048dd:	48 89 c7             	mov    %rax,%rdi
  4048e0:	48 8d 75 c0          	lea    0xffffffffffffffc0(%rbp),%rsi
  4048e4:	e8 cf fa ff ff       	callq  4043b8 <_ZNK8ACE_SOCK15get_remote_addrER8ACE_Addr@plt>
  4048e9:	c1 e8 1f             	shr    $0x1f,%eax
  4048ec:	84 c0                	test   %al,%al
  4048ee:	74 0d                	je     4048fd <odcp_get_remote_hostname+0x83>
  4048f0:	48 c7 45 e8 00 00 00 	movq   $0x0,0xffffffffffffffe8(%rbp)
  4048f7:	00 
  4048f8:	e9 85 00 00 00       	jmpq   404982 <odcp_get_remote_hostname+0x108>
  4048fd:	48 8d 7d c0          	lea    0xffffffffffffffc0(%rbp),%rdi
  404901:	e8 62 f5 ff ff       	callq  403e68 <_ZNK13ACE_INET_Addr13get_host_nameEv@plt>
  404906:	48 89 45 e8          	mov    %rax,0xffffffffffffffe8(%rbp)
  40490a:	eb 76                	jmp    404982 <odcp_get_remote_hostname+0x108>
  40490c:	48 8b 45 10          	mov    0x10(%rbp),%rax
  404910:	48 89 c7             	mov    %rax,%rdi
  404913:	48 8d 75 c0          	lea    0xffffffffffffffc0(%rbp),%rsi
  404917:	e8 ec fa ff ff       	callq  404408 <_ZNK19ACE_SSL_SOCK_Stream15get_remote_addrER8ACE_Addr@plt>
  40491c:	c1 e8 1f             	shr    $0x1f,%eax
  40491f:	84 c0                	test   %al,%al
  404921:	74 0a                	je     40492d <odcp_get_remote_hostname+0xb3>
  404923:	48 c7 45 e8 00 00 00 	movq   $0x0,0xffffffffffffffe8(%rbp)
  40492a:	00 
  40492b:	eb 55                	jmp    404982 <odcp_get_remote_hostname+0x108>
  40492d:	48 8d 7d c0          	lea    0xffffffffffffffc0(%rbp),%rdi
  404931:	e8 32 f5 ff ff       	callq  403e68 <_ZNK13ACE_INET_Addr13get_host_nameEv@plt>
  404936:	48 89 45 e8          	mov    %rax,0xffffffffffffffe8(%rbp)
  40493a:	eb 46                	jmp    404982 <odcp_get_remote_hostname+0x108>
  40493c:	8b 45 18             	mov    0x18(%rbp),%eax
  40493f:	83 f8 02             	cmp    $0x2,%eax
  404942:	75 36                	jne    40497a <odcp_get_remote_hostname+0x100>
  404944:	48 8b 45 10          	mov    0x10(%rbp),%rax
  404948:	48 89 c7             	mov    %rax,%rdi
  40494b:	48 8d b5 70 ff ff ff 	lea    0xffffffffffffff70(%rbp),%rsi
  404952:	e8 81 f4 ff ff       	callq  403dd8 <_ZNK8ACE_SOCK14get_local_addrER8ACE_Addr@plt>
  404957:	c1 e8 1f             	shr    $0x1f,%eax
  40495a:	84 c0                	test   %al,%al
  40495c:	74 0a                	je     404968 <odcp_get_remote_hostname+0xee>
  40495e:	48 c7 45 e8 00 00 00 	movq   $0x0,0xffffffffffffffe8(%rbp)
  404965:	00 
  404966:	eb 1a                	jmp    404982 <odcp_get_remote_hostname+0x108>
  404968:	48 8d bd 70 ff ff ff 	lea    0xffffffffffffff70(%rbp),%rdi
  40496f:	e8 04 f4 ff ff       	callq  403d78 <_ZNK12ACE_MEM_Addr13get_host_nameEv@plt>
  404974:	48 89 45 e8          	mov    %rax,0xffffffffffffffe8(%rbp)
  404978:	eb 08                	jmp    404982 <odcp_get_remote_hostname+0x108>
  40497a:	48 c7 45 e8 00 00 00 	movq   $0x0,0xffffffffffffffe8(%rbp)
  404981:	00 
  404982:	48 8b 45 e8          	mov    0xffffffffffffffe8(%rbp),%rax
  404986:	48 89 85 68 ff ff ff 	mov    %rax,0xffffffffffffff68(%rbp)
  40498d:	eb 23                	jmp    4049b2 <odcp_get_remote_hostname+0x138>
  40498f:	48 89 85 58 ff ff ff 	mov    %rax,0xffffffffffffff58(%rbp)
  404996:	48 8b 9d 58 ff ff ff 	mov    0xffffffffffffff58(%rbp),%rbx
  40499d:	48 8d bd 70 ff ff ff 	lea    0xffffffffffffff70(%rbp),%rdi
  4049a4:	e8 bf f1 ff ff       	callq  403b68 <_ZN12ACE_MEM_AddrD1Ev@plt>
  4049a9:	48 89 9d 58 ff ff ff 	mov    %rbx,0xffffffffffffff58(%rbp)
  4049b0:	eb 2c                	jmp    4049de <odcp_get_remote_hostname+0x164>
  4049b2:	48 8d bd 70 ff ff ff 	lea    0xffffffffffffff70(%rbp),%rdi
  4049b9:	e8 aa f1 ff ff       	callq  403b68 <_ZN12ACE_MEM_AddrD1Ev@plt>
  4049be:	48 8d 7d c0          	lea    0xffffffffffffffc0(%rbp),%rdi
  4049c2:	e8 01 f5 ff ff       	callq  403ec8 <_ZN13ACE_INET_AddrD1Ev@plt>
  4049c7:	48 8b 85 68 ff ff ff 	mov    0xffffffffffffff68(%rbp),%rax
  4049ce:	48 89 85 60 ff ff ff 	mov    %rax,0xffffffffffffff60(%rbp)
  4049d5:	eb 2a                	jmp    404a01 <odcp_get_remote_hostname+0x187>
  4049d7:	48 89 85 58 ff ff ff 	mov    %rax,0xffffffffffffff58(%rbp)
  4049de:	48 8b 9d 58 ff ff ff 	mov    0xffffffffffffff58(%rbp),%rbx
  4049e5:	48 8d 7d c0          	lea    0xffffffffffffffc0(%rbp),%rdi
  4049e9:	e8 da f4 ff ff       	callq  403ec8 <_ZN13ACE_INET_AddrD1Ev@plt>
  4049ee:	48 89 9d 58 ff ff ff 	mov    %rbx,0xffffffffffffff58(%rbp)
  4049f5:	48 8b bd 58 ff ff ff 	mov    0xffffffffffffff58(%rbp),%rdi
  4049fc:	e8 07 f9 ff ff       	callq  404308 <_Unwind_Resume@plt>
  404a01:	48 8b 85 60 ff ff ff 	mov    0xffffffffffffff60(%rbp),%rax
  404a08:	48 81 c4 a8 00 00 00 	add    $0xa8,%rsp
  404a0f:	5b                   	pop    %rbx
  404a10:	c9                   	leaveq 
  404a11:	c3                   	retq   

0000000000404a12 <odcp_recv>:
  404a12:	55                   	push   %rbp
  404a13:	48 89 e5             	mov    %rsp,%rbp
  404a16:	48 83 ec 30          	sub    $0x30,%rsp
  404a1a:	48 89 7d e8          	mov    %rdi,0xffffffffffffffe8(%rbp)
  404a1e:	48 89 75 e0          	mov    %rsi,0xffffffffffffffe0(%rbp)
  404a22:	89 55 dc             	mov    %edx,0xffffffffffffffdc(%rbp)
  404a25:	c7 45 fc 00 00 00 00 	movl   $0x0,0xfffffffffffffffc(%rbp)
  404a2c:	48 83 7d e8 00       	cmpq   $0x0,0xffffffffffffffe8(%rbp)
  404a31:	0f 84 77 01 00 00    	je     404bae <odcp_recv+0x19c>
  404a37:	48 8b 45 e8          	mov    0xffffffffffffffe8(%rbp),%rax
  404a3b:	48 8b 00             	mov    (%rax),%rax
  404a3e:	48 85 c0             	test   %rax,%rax
  404a41:	0f 84 67 01 00 00    	je     404bae <odcp_recv+0x19c>
  404a47:	48 8b 45 e8          	mov    0xffffffffffffffe8(%rbp),%rax
  404a4b:	8b 40 08             	mov    0x8(%rax),%eax
  404a4e:	85 c0                	test   %eax,%eax
  404a50:	74 10                	je     404a62 <odcp_recv+0x50>
  404a52:	48 8b 45 e8          	mov    0xffffffffffffffe8(%rbp),%rax
  404a56:	8b 40 08             	mov    0x8(%rax),%eax
  404a59:	83 f8 01             	cmp    $0x1,%eax
  404a5c:	0f 85 0b 01 00 00    	jne    404b6d <odcp_recv+0x15b>
  404a62:	48 8b 05 4f 79 22 00 	mov    2259279(%rip),%rax        # 62c3b8 <_DYNAMIC+0x388>
  404a69:	0f b6 00             	movzbl (%rax),%eax
  404a6c:	84 c0                	test   %al,%al
  404a6e:	0f 85 86 00 00 00    	jne    404afa <odcp_recv+0xe8>
  404a74:	48 8b 05 15 79 22 00 	mov    2259221(%rip),%rax        # 62c390 <_DYNAMIC+0x360>
  404a7b:	48 8b 00             	mov    (%rax),%rax
  404a7e:	48 85 c0             	test   %rax,%rax
  404a81:	74 3e                	je     404ac1 <odcp_recv+0xaf>
  404a83:	48 8b 05 06 79 22 00 	mov    2259206(%rip),%rax        # 62c390 <_DYNAMIC+0x360>
  404a8a:	48 8b 08             	mov    (%rax),%rcx
  404a8d:	8b 55 dc             	mov    0xffffffffffffffdc(%rbp),%edx
  404a90:	48 8b 45 e8          	mov    0xffffffffffffffe8(%rbp),%rax
  404a94:	48 8b 00             	mov    (%rax),%rax
  404a97:	48 89 c7             	mov    %rax,%rdi
  404a9a:	48 8b 75 e0          	mov    0xffffffffffffffe0(%rbp),%rsi
  404a9e:	e8 ad 19 00 00       	callq  406450 <_ZNK11ACE_SOCK_IO4recvEPvmPK14ACE_Time_Value>
  404aa3:	89 45 fc             	mov    %eax,0xfffffffffffffffc(%rbp)
  404aa6:	83 7d fc 00          	cmpl   $0x0,0xfffffffffffffffc(%rbp)
  404aaa:	0f 9e c0             	setle  %al
  404aad:	84 c0                	test   %al,%al
  404aaf:	0f 84 f9 00 00 00    	je     404bae <odcp_recv+0x19c>
  404ab5:	c7 45 fc 1d d1 ff ff 	movl   $0xffffd11d,0xfffffffffffffffc(%rbp)
  404abc:	e9 ed 00 00 00       	jmpq   404bae <odcp_recv+0x19c>
  404ac1:	8b 55 dc             	mov    0xffffffffffffffdc(%rbp),%edx
  404ac4:	48 8b 45 e8          	mov    0xffffffffffffffe8(%rbp),%rax
  404ac8:	48 8b 00             	mov    (%rax),%rax
  404acb:	48 89 c7             	mov    %rax,%rdi
  404ace:	48 8b 75 e0          	mov    0xffffffffffffffe0(%rbp),%rsi
  404ad2:	b9 00 00 00 00       	mov    $0x0,%ecx
  404ad7:	e8 74 19 00 00       	callq  406450 <_ZNK11ACE_SOCK_IO4recvEPvmPK14ACE_Time_Value>
  404adc:	89 45 fc             	mov    %eax,0xfffffffffffffffc(%rbp)
  404adf:	83 7d fc 00          	cmpl   $0x0,0xfffffffffffffffc(%rbp)
  404ae3:	0f 9e c0             	setle  %al
  404ae6:	84 c0                	test   %al,%al
  404ae8:	0f 84 c0 00 00 00    	je     404bae <odcp_recv+0x19c>
  404aee:	c7 45 fc 1d d1 ff ff 	movl   $0xffffd11d,0xfffffffffffffffc(%rbp)
  404af5:	e9 b4 00 00 00       	jmpq   404bae <odcp_recv+0x19c>
  404afa:	48 8b 05 8f 78 22 00 	mov    2259087(%rip),%rax        # 62c390 <_DYNAMIC+0x360>
  404b01:	48 8b 00             	mov    (%rax),%rax
  404b04:	48 85 c0             	test   %rax,%rax
  404b07:	74 37                	je     404b40 <odcp_recv+0x12e>
  404b09:	48 8b 05 80 78 22 00 	mov    2259072(%rip),%rax        # 62c390 <_DYNAMIC+0x360>
  404b10:	48 8b 08             	mov    (%rax),%rcx
  404b13:	8b 55 dc             	mov    0xffffffffffffffdc(%rbp),%edx
  404b16:	48 8b 45 e8          	mov    0xffffffffffffffe8(%rbp),%rax
  404b1a:	48 8b 00             	mov    (%rax),%rax
  404b1d:	48 89 c7             	mov    %rax,%rdi
  404b20:	48 8b 75 e0          	mov    0xffffffffffffffe0(%rbp),%rsi
  404b24:	e8 5d 19 00 00       	callq  406486 <_ZNK19ACE_SSL_SOCK_Stream4recvEPvmPK14ACE_Time_Value>
  404b29:	89 45 fc             	mov    %eax,0xfffffffffffffffc(%rbp)
  404b2c:	83 7d fc 00          	cmpl   $0x0,0xfffffffffffffffc(%rbp)
  404b30:	0f 9e c0             	setle  %al
  404b33:	84 c0                	test   %al,%al
  404b35:	74 77                	je     404bae <odcp_recv+0x19c>
  404b37:	c7 45 fc 1d d1 ff ff 	movl   $0xffffd11d,0xfffffffffffffffc(%rbp)
  404b3e:	eb 6e                	jmp    404bae <odcp_recv+0x19c>
  404b40:	8b 55 dc             	mov    0xffffffffffffffdc(%rbp),%edx
  404b43:	48 8b 45 e8          	mov    0xffffffffffffffe8(%rbp),%rax
  404b47:	48 8b 00             	mov    (%rax),%rax
  404b4a:	48 89 c7             	mov    %rax,%rdi
  404b4d:	48 8b 75 e0          	mov    0xffffffffffffffe0(%rbp),%rsi
  404b51:	e8 40 1b 00 00       	callq  406696 <_ZNK19ACE_SSL_SOCK_Stream4recvEPvm>
  404b56:	89 45 fc             	mov    %eax,0xfffffffffffffffc(%rbp)
  404b59:	83 7d fc 00          	cmpl   $0x0,0xfffffffffffffffc(%rbp)
  404b5d:	0f 9e c0             	setle  %al
  404b60:	84 c0                	test   %al,%al
  404b62:	74 4a                	je     404bae <odcp_recv+0x19c>
  404b64:	c7 45 fc 1d d1 ff ff 	movl   $0xffffd11d,0xfffffffffffffffc(%rbp)
  404b6b:	eb 41                	jmp    404bae <odcp_recv+0x19c>
  404b6d:	48 8b 45 e8          	mov    0xffffffffffffffe8(%rbp),%rax
  404b71:	8b 40 08             	mov    0x8(%rax),%eax
  404b74:	83 f8 02             	cmp    $0x2,%eax
  404b77:	75 35                	jne    404bae <odcp_recv+0x19c>
  404b79:	48 8b 05 10 78 22 00 	mov    2258960(%rip),%rax        # 62c390 <_DYNAMIC+0x360>
  404b80:	48 8b 08             	mov    (%rax),%rcx
  404b83:	8b 55 dc             	mov    0xffffffffffffffdc(%rbp),%edx
  404b86:	48 8b 45 e8          	mov    0xffffffffffffffe8(%rbp),%rax
  404b8a:	48 8b 00             	mov    (%rax),%rax
  404b8d:	48 89 c7             	mov    %rax,%rdi
  404b90:	48 8b 75 e0          	mov    0xffffffffffffffe0(%rbp),%rsi
  404b94:	e8 9b 1f 00 00       	callq  406b34 <_ZN10ACE_MEM_IO4recvEPvmPK14ACE_Time_Value>
  404b99:	89 45 fc             	mov    %eax,0xfffffffffffffffc(%rbp)
  404b9c:	83 7d fc 00          	cmpl   $0x0,0xfffffffffffffffc(%rbp)
  404ba0:	0f 9e c0             	setle  %al
  404ba3:	84 c0                	test   %al,%al
  404ba5:	74 07                	je     404bae <odcp_recv+0x19c>
  404ba7:	c7 45 fc 1d d1 ff ff 	movl   $0xffffd11d,0xfffffffffffffffc(%rbp)
  404bae:	81 7d fc 1d d1 ff ff 	cmpl   $0xffffd11d,0xfffffffffffffffc(%rbp)
  404bb5:	75 46                	jne    404bfd <odcp_recv+0x1eb>
  404bb7:	48 8b 05 12 78 22 00 	mov    2258962(%rip),%rax        # 62c3d0 <_DYNAMIC+0x3a0>
  404bbe:	48 8b 00             	mov    (%rax),%rax
  404bc1:	48 85 c0             	test   %rax,%rax
  404bc4:	74 37                	je     404bfd <odcp_recv+0x1eb>
  404bc6:	48 8b 45 e8          	mov    0xffffffffffffffe8(%rbp),%rax
  404bca:	8b 50 0c             	mov    0xc(%rax),%edx
  404bcd:	48 8b 05 d4 76 22 00 	mov    2258644(%rip),%rax        # 62c2a8 <_DYNAMIC+0x278>
  404bd4:	8b 00                	mov    (%rax),%eax
  404bd6:	39 c2                	cmp    %eax,%edx
  404bd8:	7d 23                	jge    404bfd <odcp_recv+0x1eb>
  404bda:	48 8b 45 e8          	mov    0xffffffffffffffe8(%rbp),%rax
  404bde:	8b 40 0c             	mov    0xc(%rax),%eax
  404be1:	85 c0                	test   %eax,%eax
  404be3:	78 18                	js     404bfd <odcp_recv+0x1eb>
  404be5:	48 8b 05 e4 77 22 00 	mov    2258916(%rip),%rax        # 62c3d0 <_DYNAMIC+0x3a0>
  404bec:	48 8b 10             	mov    (%rax),%rdx
  404bef:	48 8b 45 e8          	mov    0xffffffffffffffe8(%rbp),%rax
  404bf3:	8b 78 0c             	mov    0xc(%rax),%edi
  404bf6:	be 01 00 00 00       	mov    $0x1,%esi
  404bfb:	ff d2                	callq  *%rdx
  404bfd:	8b 45 fc             	mov    0xfffffffffffffffc(%rbp),%eax
  404c00:	c9                   	leaveq 
  404c01:	c3                   	retq   

0000000000404c02 <odcp_recvn>:
  404c02:	55                   	push   %rbp
  404c03:	48 89 e5             	mov    %rsp,%rbp
  404c06:	48 83 ec 50          	sub    $0x50,%rsp
  404c0a:	48 89 7d c8          	mov    %rdi,0xffffffffffffffc8(%rbp)
  404c0e:	48 89 75 c0          	mov    %rsi,0xffffffffffffffc0(%rbp)
  404c12:	89 55 bc             	mov    %edx,0xffffffffffffffbc(%rbp)
  404c15:	c7 45 dc 00 00 00 00 	movl   $0x0,0xffffffffffffffdc(%rbp)
  404c1c:	48 83 7d c8 00       	cmpq   $0x0,0xffffffffffffffc8(%rbp)
  404c21:	0f 84 4e 03 00 00    	je     404f75 <odcp_recvn+0x373>
  404c27:	48 8b 45 c8          	mov    0xffffffffffffffc8(%rbp),%rax
  404c2b:	48 8b 00             	mov    (%rax),%rax
  404c2e:	48 85 c0             	test   %rax,%rax
  404c31:	0f 84 3e 03 00 00    	je     404f75 <odcp_recvn+0x373>
  404c37:	48 8b 45 c8          	mov    0xffffffffffffffc8(%rbp),%rax
  404c3b:	8b 40 08             	mov    0x8(%rax),%eax
  404c3e:	85 c0                	test   %eax,%eax
  404c40:	74 10                	je     404c52 <odcp_recvn+0x50>
  404c42:	48 8b 45 c8          	mov    0xffffffffffffffc8(%rbp),%rax
  404c46:	8b 40 08             	mov    0x8(%rax),%eax
  404c49:	83 f8 01             	cmp    $0x1,%eax
  404c4c:	0f 85 ec 02 00 00    	jne    404f3e <odcp_recvn+0x33c>
  404c52:	48 8b 05 5f 77 22 00 	mov    2258783(%rip),%rax        # 62c3b8 <_DYNAMIC+0x388>
  404c59:	0f b6 00             	movzbl (%rax),%eax
  404c5c:	84 c0                	test   %al,%al
  404c5e:	0f 85 0f 02 00 00    	jne    404e73 <odcp_recvn+0x271>
  404c64:	81 7d bc 00 00 a0 00 	cmpl   $0xa00000,0xffffffffffffffbc(%rbp)
  404c6b:	0f 86 70 01 00 00    	jbe    404de1 <odcp_recvn+0x1df>
  404c71:	8b 45 bc             	mov    0xffffffffffffffbc(%rbp),%eax
  404c74:	89 45 ec             	mov    %eax,0xffffffffffffffec(%rbp)
  404c77:	48 8b 45 c0          	mov    0xffffffffffffffc0(%rbp),%rax
  404c7b:	48 89 45 e0          	mov    %rax,0xffffffffffffffe0(%rbp)
  404c7f:	e9 ae 00 00 00       	jmpq   404d32 <odcp_recvn+0x130>
  404c84:	48 8b 05 05 77 22 00 	mov    2258693(%rip),%rax        # 62c390 <_DYNAMIC+0x360>
  404c8b:	48 8b 00             	mov    (%rax),%rax
  404c8e:	48 85 c0             	test   %rax,%rax
  404c91:	74 53                	je     404ce6 <odcp_recvn+0xe4>
  404c93:	48 8b 05 f6 76 22 00 	mov    2258678(%rip),%rax        # 62c390 <_DYNAMIC+0x360>
  404c9a:	48 8b 08             	mov    (%rax),%rcx
  404c9d:	48 8b 45 c8          	mov    0xffffffffffffffc8(%rbp),%rax
  404ca1:	48 8b 00             	mov    (%rax),%rax
  404ca4:	48 89 c7             	mov    %rax,%rdi
  404ca7:	48 8b 75 e0          	mov    0xffffffffffffffe0(%rbp),%rsi
  404cab:	41 b8 00 00 00 00    	mov    $0x0,%r8d
  404cb1:	ba 00 00 a0 00       	mov    $0xa00000,%edx
  404cb6:	e8 9b 1f 00 00       	callq  406c56 <_ZNK15ACE_SOCK_Stream6recv_nEPvmPK14ACE_Time_ValuePm>
  404cbb:	89 45 dc             	mov    %eax,0xffffffffffffffdc(%rbp)
  404cbe:	83 7d dc 00          	cmpl   $0x0,0xffffffffffffffdc(%rbp)
  404cc2:	0f 9e c0             	setle  %al
  404cc5:	84 c0                	test   %al,%al
  404cc7:	74 0c                	je     404cd5 <odcp_recvn+0xd3>
  404cc9:	c7 45 dc 1d d1 ff ff 	movl   $0xffffd11d,0xffffffffffffffdc(%rbp)
  404cd0:	e9 a0 02 00 00       	jmpq   404f75 <odcp_recvn+0x373>
  404cd5:	81 6d ec 00 00 a0 00 	subl   $0xa00000,0xffffffffffffffec(%rbp)
  404cdc:	48 81 45 e0 00 00 a0 	addq   $0xa00000,0xffffffffffffffe0(%rbp)
  404ce3:	00 
  404ce4:	eb 4c                	jmp    404d32 <odcp_recvn+0x130>
  404ce6:	48 8b 45 c8          	mov    0xffffffffffffffc8(%rbp),%rax
  404cea:	48 8b 00             	mov    (%rax),%rax
  404ced:	48 89 c7             	mov    %rax,%rdi
  404cf0:	48 8b 75 e0          	mov    0xffffffffffffffe0(%rbp),%rsi
  404cf4:	41 b8 00 00 00 00    	mov    $0x0,%r8d
  404cfa:	b9 00 00 00 00       	mov    $0x0,%ecx
  404cff:	ba 00 00 a0 00       	mov    $0xa00000,%edx
  404d04:	e8 4d 1f 00 00       	callq  406c56 <_ZNK15ACE_SOCK_Stream6recv_nEPvmPK14ACE_Time_ValuePm>
  404d09:	89 45 dc             	mov    %eax,0xffffffffffffffdc(%rbp)
  404d0c:	83 7d dc 00          	cmpl   $0x0,0xffffffffffffffdc(%rbp)
  404d10:	0f 9e c0             	setle  %al
  404d13:	84 c0                	test   %al,%al
  404d15:	74 0c                	je     404d23 <odcp_recvn+0x121>
  404d17:	c7 45 dc 1d d1 ff ff 	movl   $0xffffd11d,0xffffffffffffffdc(%rbp)
  404d1e:	e9 52 02 00 00       	jmpq   404f75 <odcp_recvn+0x373>
  404d23:	81 6d ec 00 00 a0 00 	subl   $0xa00000,0xffffffffffffffec(%rbp)
  404d2a:	48 81 45 e0 00 00 a0 	addq   $0xa00000,0xffffffffffffffe0(%rbp)
  404d31:	00 
  404d32:	81 7d ec 00 00 a0 00 	cmpl   $0xa00000,0xffffffffffffffec(%rbp)
  404d39:	0f 8f 45 ff ff ff    	jg     404c84 <odcp_recvn+0x82>
  404d3f:	83 7d ec 00          	cmpl   $0x0,0xffffffffffffffec(%rbp)
  404d43:	0f 8e 2c 02 00 00    	jle    404f75 <odcp_recvn+0x373>
  404d49:	48 8b 05 40 76 22 00 	mov    2258496(%rip),%rax        # 62c390 <_DYNAMIC+0x360>
  404d50:	48 8b 00             	mov    (%rax),%rax
  404d53:	48 85 c0             	test   %rax,%rax
  404d56:	74 47                	je     404d9f <odcp_recvn+0x19d>
  404d58:	48 8b 05 31 76 22 00 	mov    2258481(%rip),%rax        # 62c390 <_DYNAMIC+0x360>
  404d5f:	48 8b 08             	mov    (%rax),%rcx
  404d62:	8b 45 ec             	mov    0xffffffffffffffec(%rbp),%eax
  404d65:	48 63 d0             	movslq %eax,%rdx
  404d68:	48 8b 45 c8          	mov    0xffffffffffffffc8(%rbp),%rax
  404d6c:	48 8b 00             	mov    (%rax),%rax
  404d6f:	48 89 c7             	mov    %rax,%rdi
  404d72:	48 8b 75 e0          	mov    0xffffffffffffffe0(%rbp),%rsi
  404d76:	41 b8 00 00 00 00    	mov    $0x0,%r8d
  404d7c:	e8 d5 1e 00 00       	callq  406c56 <_ZNK15ACE_SOCK_Stream6recv_nEPvmPK14ACE_Time_ValuePm>
  404d81:	89 45 dc             	mov    %eax,0xffffffffffffffdc(%rbp)
  404d84:	83 7d dc 00          	cmpl   $0x0,0xffffffffffffffdc(%rbp)
  404d88:	0f 9e c0             	setle  %al
  404d8b:	84 c0                	test   %al,%al
  404d8d:	0f 84 e2 01 00 00    	je     404f75 <odcp_recvn+0x373>
  404d93:	c7 45 dc 1d d1 ff ff 	movl   $0xffffd11d,0xffffffffffffffdc(%rbp)
  404d9a:	e9 d6 01 00 00       	jmpq   404f75 <odcp_recvn+0x373>
  404d9f:	8b 45 ec             	mov    0xffffffffffffffec(%rbp),%eax
  404da2:	48 63 d0             	movslq %eax,%rdx
  404da5:	48 8b 45 c8          	mov    0xffffffffffffffc8(%rbp),%rax
  404da9:	48 8b 00             	mov    (%rax),%rax
  404dac:	48 89 c7             	mov    %rax,%rdi
  404daf:	48 8b 75 e0          	mov    0xffffffffffffffe0(%rbp),%rsi
  404db3:	41 b8 00 00 00 00    	mov    $0x0,%r8d
  404db9:	b9 00 00 00 00       	mov    $0x0,%ecx
  404dbe:	e8 93 1e 00 00       	callq  406c56 <_ZNK15ACE_SOCK_Stream6recv_nEPvmPK14ACE_Time_ValuePm>
  404dc3:	89 45 dc             	mov    %eax,0xffffffffffffffdc(%rbp)
  404dc6:	83 7d dc 00          	cmpl   $0x0,0xffffffffffffffdc(%rbp)
  404dca:	0f 9e c0             	setle  %al
  404dcd:	84 c0                	test   %al,%al
  404dcf:	0f 84 a0 01 00 00    	je     404f75 <odcp_recvn+0x373>
  404dd5:	c7 45 dc 1d d1 ff ff 	movl   $0xffffd11d,0xffffffffffffffdc(%rbp)
  404ddc:	e9 94 01 00 00       	jmpq   404f75 <odcp_recvn+0x373>
  404de1:	48 8b 05 a8 75 22 00 	mov    2258344(%rip),%rax        # 62c390 <_DYNAMIC+0x360>
  404de8:	48 8b 00             	mov    (%rax),%rax
  404deb:	48 85 c0             	test   %rax,%rax
  404dee:	74 44                	je     404e34 <odcp_recvn+0x232>
  404df0:	48 8b 05 99 75 22 00 	mov    2258329(%rip),%rax        # 62c390 <_DYNAMIC+0x360>
  404df7:	48 8b 08             	mov    (%rax),%rcx
  404dfa:	8b 55 bc             	mov    0xffffffffffffffbc(%rbp),%edx
  404dfd:	48 8b 45 c8          	mov    0xffffffffffffffc8(%rbp),%rax
  404e01:	48 8b 00             	mov    (%rax),%rax
  404e04:	48 89 c7             	mov    %rax,%rdi
  404e07:	48 8b 75 c0          	mov    0xffffffffffffffc0(%rbp),%rsi
  404e0b:	41 b8 00 00 00 00    	mov    $0x0,%r8d
  404e11:	e8 40 1e 00 00       	callq  406c56 <_ZNK15ACE_SOCK_Stream6recv_nEPvmPK14ACE_Time_ValuePm>
  404e16:	89 45 dc             	mov    %eax,0xffffffffffffffdc(%rbp)
  404e19:	83 7d dc 00          	cmpl   $0x0,0xffffffffffffffdc(%rbp)
  404e1d:	0f 9e c0             	setle  %al
  404e20:	84 c0                	test   %al,%al
  404e22:	0f 84 4d 01 00 00    	je     404f75 <odcp_recvn+0x373>
  404e28:	c7 45 dc 1d d1 ff ff 	movl   $0xffffd11d,0xffffffffffffffdc(%rbp)
  404e2f:	e9 41 01 00 00       	jmpq   404f75 <odcp_recvn+0x373>
  404e34:	8b 55 bc             	mov    0xffffffffffffffbc(%rbp),%edx
  404e37:	48 8b 45 c8          	mov    0xffffffffffffffc8(%rbp),%rax
  404e3b:	48 8b 00             	mov    (%rax),%rax
  404e3e:	48 89 c7             	mov    %rax,%rdi
  404e41:	48 8b 75 c0          	mov    0xffffffffffffffc0(%rbp),%rsi
  404e45:	41 b8 00 00 00 00    	mov    $0x0,%r8d
  404e4b:	b9 00 00 00 00       	mov    $0x0,%ecx
  404e50:	e8 01 1e 00 00       	callq  406c56 <_ZNK15ACE_SOCK_Stream6recv_nEPvmPK14ACE_Time_ValuePm>
  404e55:	89 45 dc             	mov    %eax,0xffffffffffffffdc(%rbp)
  404e58:	83 7d dc 00          	cmpl   $0x0,0xffffffffffffffdc(%rbp)
  404e5c:	0f 9e c0             	setle  %al
  404e5f:	84 c0                	test   %al,%al
  404e61:	0f 84 0e 01 00 00    	je     404f75 <odcp_recvn+0x373>
  404e67:	c7 45 dc 1d d1 ff ff 	movl   $0xffffd11d,0xffffffffffffffdc(%rbp)
  404e6e:	e9 02 01 00 00       	jmpq   404f75 <odcp_recvn+0x373>
  404e73:	81 7d bc 00 00 a0 00 	cmpl   $0xa00000,0xffffffffffffffbc(%rbp)
  404e7a:	0f 86 91 00 00 00    	jbe    404f11 <odcp_recvn+0x30f>
  404e80:	8b 45 bc             	mov    0xffffffffffffffbc(%rbp),%eax
  404e83:	89 45 fc             	mov    %eax,0xfffffffffffffffc(%rbp)
  404e86:	48 8b 45 c0          	mov    0xffffffffffffffc0(%rbp),%rax
  404e8a:	48 89 45 f0          	mov    %rax,0xfffffffffffffff0(%rbp)
  404e8e:	eb 41                	jmp    404ed1 <odcp_recvn+0x2cf>
  404e90:	48 8b 45 c8          	mov    0xffffffffffffffc8(%rbp),%rax
  404e94:	48 8b 00             	mov    (%rax),%rax
  404e97:	48 89 c7             	mov    %rax,%rdi
  404e9a:	48 8b 75 f0          	mov    0xfffffffffffffff0(%rbp),%rsi
  404e9e:	ba 00 00 a0 00       	mov    $0xa00000,%edx
  404ea3:	e8 f0 1d 00 00       	callq  406c98 <_ZNK19ACE_SSL_SOCK_Stream6recv_nEPvi>
  404ea8:	89 45 dc             	mov    %eax,0xffffffffffffffdc(%rbp)
  404eab:	83 7d dc 00          	cmpl   $0x0,0xffffffffffffffdc(%rbp)
  404eaf:	0f 9e c0             	setle  %al
  404eb2:	84 c0                	test   %al,%al
  404eb4:	74 0c                	je     404ec2 <odcp_recvn+0x2c0>
  404eb6:	c7 45 dc 1d d1 ff ff 	movl   $0xffffd11d,0xffffffffffffffdc(%rbp)
  404ebd:	e9 b3 00 00 00       	jmpq   404f75 <odcp_recvn+0x373>
  404ec2:	81 6d fc 00 00 a0 00 	subl   $0xa00000,0xfffffffffffffffc(%rbp)
  404ec9:	48 81 45 f0 00 00 a0 	addq   $0xa00000,0xfffffffffffffff0(%rbp)
  404ed0:	00 
  404ed1:	81 7d fc 00 00 a0 00 	cmpl   $0xa00000,0xfffffffffffffffc(%rbp)
  404ed8:	7f b6                	jg     404e90 <odcp_recvn+0x28e>
  404eda:	83 7d fc 00          	cmpl   $0x0,0xfffffffffffffffc(%rbp)
  404ede:	0f 8e 91 00 00 00    	jle    404f75 <odcp_recvn+0x373>
  404ee4:	48 8b 45 c8          	mov    0xffffffffffffffc8(%rbp),%rax
  404ee8:	48 8b 00             	mov    (%rax),%rax
  404eeb:	48 89 c7             	mov    %rax,%rdi
  404eee:	8b 55 fc             	mov    0xfffffffffffffffc(%rbp),%edx
  404ef1:	48 8b 75 f0          	mov    0xfffffffffffffff0(%rbp),%rsi
  404ef5:	e8 9e 1d 00 00       	callq  406c98 <_ZNK19ACE_SSL_SOCK_Stream6recv_nEPvi>
  404efa:	89 45 dc             	mov    %eax,0xffffffffffffffdc(%rbp)
  404efd:	83 7d dc 00          	cmpl   $0x0,0xffffffffffffffdc(%rbp)
  404f01:	0f 9e c0             	setle  %al
  404f04:	84 c0                	test   %al,%al
  404f06:	74 6d                	je     404f75 <odcp_recvn+0x373>
  404f08:	c7 45 dc 1d d1 ff ff 	movl   $0xffffd11d,0xffffffffffffffdc(%rbp)
  404f0f:	eb 64                	jmp    404f75 <odcp_recvn+0x373>
  404f11:	8b 55 bc             	mov    0xffffffffffffffbc(%rbp),%edx
  404f14:	48 8b 45 c8          	mov    0xffffffffffffffc8(%rbp),%rax
  404f18:	48 8b 00             	mov    (%rax),%rax
  404f1b:	48 89 c7             	mov    %rax,%rdi
  404f1e:	48 8b 75 c0          	mov    0xffffffffffffffc0(%rbp),%rsi
  404f22:	e8 71 1d 00 00       	callq  406c98 <_ZNK19ACE_SSL_SOCK_Stream6recv_nEPvi>
  404f27:	89 45 dc             	mov    %eax,0xffffffffffffffdc(%rbp)
  404f2a:	83 7d dc 00          	cmpl   $0x0,0xffffffffffffffdc(%rbp)
  404f2e:	0f 9e c0             	setle  %al
  404f31:	84 c0                	test   %al,%al
  404f33:	74 40                	je     404f75 <odcp_recvn+0x373>
  404f35:	c7 45 dc 1d d1 ff ff 	movl   $0xffffd11d,0xffffffffffffffdc(%rbp)
  404f3c:	eb 37                	jmp    404f75 <odcp_recvn+0x373>
  404f3e:	48 8b 45 c8          	mov    0xffffffffffffffc8(%rbp),%rax
  404f42:	8b 40 08             	mov    0x8(%rax),%eax
  404f45:	83 f8 02             	cmp    $0x2,%eax
  404f48:	75 2b                	jne    404f75 <odcp_recvn+0x373>
  404f4a:	8b 55 bc             	mov    0xffffffffffffffbc(%rbp),%edx
  404f4d:	48 8b 45 c8          	mov    0xffffffffffffffc8(%rbp),%rax
  404f51:	48 8b 00             	mov    (%rax),%rax
  404f54:	48 89 c7             	mov    %rax,%rdi
  404f57:	48 8b 75 c0          	mov    0xffffffffffffffc0(%rbp),%rsi
  404f5b:	e8 6c 1c 00 00       	callq  406bcc <_ZN14ACE_MEM_Stream6recv_nEPvm>
  404f60:	89 45 dc             	mov    %eax,0xffffffffffffffdc(%rbp)
  404f63:	83 7d dc 00          	cmpl   $0x0,0xffffffffffffffdc(%rbp)
  404f67:	0f 9e c0             	setle  %al
  404f6a:	84 c0                	test   %al,%al
  404f6c:	74 07                	je     404f75 <odcp_recvn+0x373>
  404f6e:	c7 45 dc 1d d1 ff ff 	movl   $0xffffd11d,0xffffffffffffffdc(%rbp)
  404f75:	81 7d dc 1d d1 ff ff 	cmpl   $0xffffd11d,0xffffffffffffffdc(%rbp)
  404f7c:	75 46                	jne    404fc4 <odcp_recvn+0x3c2>
  404f7e:	48 8b 05 4b 74 22 00 	mov    2257995(%rip),%rax        # 62c3d0 <_DYNAMIC+0x3a0>
  404f85:	48 8b 00             	mov    (%rax),%rax
  404f88:	48 85 c0             	test   %rax,%rax
  404f8b:	74 37                	je     404fc4 <odcp_recvn+0x3c2>
  404f8d:	48 8b 45 c8          	mov    0xffffffffffffffc8(%rbp),%rax
  404f91:	8b 50 0c             	mov    0xc(%rax),%edx
  404f94:	48 8b 05 0d 73 22 00 	mov    2257677(%rip),%rax        # 62c2a8 <_DYNAMIC+0x278>
  404f9b:	8b 00                	mov    (%rax),%eax
  404f9d:	39 c2                	cmp    %eax,%edx
  404f9f:	7d 23                	jge    404fc4 <odcp_recvn+0x3c2>
  404fa1:	48 8b 45 c8          	mov    0xffffffffffffffc8(%rbp),%rax
  404fa5:	8b 40 0c             	mov    0xc(%rax),%eax
  404fa8:	85 c0                	test   %eax,%eax
  404faa:	78 18                	js     404fc4 <odcp_recvn+0x3c2>
  404fac:	48 8b 05 1d 74 22 00 	mov    2257949(%rip),%rax        # 62c3d0 <_DYNAMIC+0x3a0>
  404fb3:	48 8b 10             	mov    (%rax),%rdx
  404fb6:	48 8b 45 c8          	mov    0xffffffffffffffc8(%rbp),%rax
  404fba:	8b 78 0c             	mov    0xc(%rax),%edi
  404fbd:	be 01 00 00 00       	mov    $0x1,%esi
  404fc2:	ff d2                	callq  *%rdx
  404fc4:	8b 45 dc             	mov    0xffffffffffffffdc(%rbp),%eax
  404fc7:	c9                   	leaveq 
  404fc8:	c3                   	retq   
  404fc9:	90                   	nop    

0000000000404fca <odcp_send>:
  404fca:	55                   	push   %rbp
  404fcb:	48 89 e5             	mov    %rsp,%rbp
  404fce:	48 83 ec 30          	sub    $0x30,%rsp
  404fd2:	48 89 7d e8          	mov    %rdi,0xffffffffffffffe8(%rbp)
  404fd6:	48 89 75 e0          	mov    %rsi,0xffffffffffffffe0(%rbp)
  404fda:	89 55 dc             	mov    %edx,0xffffffffffffffdc(%rbp)
  404fdd:	c7 45 fc 00 00 00 00 	movl   $0x0,0xfffffffffffffffc(%rbp)
  404fe4:	48 83 7d e8 00       	cmpq   $0x0,0xffffffffffffffe8(%rbp)
  404fe9:	0f 84 cb 00 00 00    	je     4050ba <odcp_send+0xf0>
  404fef:	48 8b 45 e8          	mov    0xffffffffffffffe8(%rbp),%rax
  404ff3:	48 8b 00             	mov    (%rax),%rax
  404ff6:	48 85 c0             	test   %rax,%rax
  404ff9:	0f 84 bb 00 00 00    	je     4050ba <odcp_send+0xf0>
  404fff:	48 8b 45 e8          	mov    0xffffffffffffffe8(%rbp),%rax
  405003:	8b 40 08             	mov    0x8(%rax),%eax
  405006:	85 c0                	test   %eax,%eax
  405008:	74 0c                	je     405016 <odcp_send+0x4c>
  40500a:	48 8b 45 e8          	mov    0xffffffffffffffe8(%rbp),%rax
  40500e:	8b 40 08             	mov    0x8(%rax),%eax
  405011:	83 f8 01             	cmp    $0x1,%eax
  405014:	75 6d                	jne    405083 <odcp_send+0xb9>
  405016:	48 8b 05 9b 73 22 00 	mov    2257819(%rip),%rax        # 62c3b8 <_DYNAMIC+0x388>
  40501d:	0f b6 00             	movzbl (%rax),%eax
  405020:	84 c0                	test   %al,%al
  405022:	75 32                	jne    405056 <odcp_send+0x8c>
  405024:	8b 55 dc             	mov    0xffffffffffffffdc(%rbp),%edx
  405027:	48 8b 45 e8          	mov    0xffffffffffffffe8(%rbp),%rax
  40502b:	48 8b 00             	mov    (%rax),%rax
  40502e:	48 89 c7             	mov    %rax,%rdi
  405031:	48 8b 75 e0          	mov    0xffffffffffffffe0(%rbp),%rsi
  405035:	b9 00 00 00 00       	mov    $0x0,%ecx
  40503a:	e8 83 1c 00 00       	callq  406cc2 <_ZNK11ACE_SOCK_IO4sendEPKvmPK14ACE_Time_Value>
  40503f:	89 45 fc             	mov    %eax,0xfffffffffffffffc(%rbp)
  405042:	83 7d fc 00          	cmpl   $0x0,0xfffffffffffffffc(%rbp)
  405046:	0f 9e c0             	setle  %al
  405049:	84 c0                	test   %al,%al
  40504b:	74 6d                	je     4050ba <odcp_send+0xf0>
  40504d:	c7 45 fc 1d d1 ff ff 	movl   $0xffffd11d,0xfffffffffffffffc(%rbp)
  405054:	eb 64                	jmp    4050ba <odcp_send+0xf0>
  405056:	8b 55 dc             	mov    0xffffffffffffffdc(%rbp),%edx
  405059:	48 8b 45 e8          	mov    0xffffffffffffffe8(%rbp),%rax
  40505d:	48 8b 00             	mov    (%rax),%rax
  405060:	48 89 c7             	mov    %rax,%rdi
  405063:	48 8b 75 e0          	mov    0xffffffffffffffe0(%rbp),%rsi
  405067:	e8 86 1d 00 00       	callq  406df2 <_ZNK19ACE_SSL_SOCK_Stream4sendEPKvm>
  40506c:	89 45 fc             	mov    %eax,0xfffffffffffffffc(%rbp)
  40506f:	83 7d fc 00          	cmpl   $0x0,0xfffffffffffffffc(%rbp)
  405073:	0f 9e c0             	setle  %al
  405076:	84 c0                	test   %al,%al
  405078:	74 40                	je     4050ba <odcp_send+0xf0>
  40507a:	c7 45 fc 1d d1 ff ff 	movl   $0xffffd11d,0xfffffffffffffffc(%rbp)
  405081:	eb 37                	jmp    4050ba <odcp_send+0xf0>
  405083:	48 8b 45 e8          	mov    0xffffffffffffffe8(%rbp),%rax
  405087:	8b 40 08             	mov    0x8(%rax),%eax
  40508a:	83 f8 02             	cmp    $0x2,%eax
  40508d:	75 2b                	jne    4050ba <odcp_send+0xf0>
  40508f:	8b 55 dc             	mov    0xffffffffffffffdc(%rbp),%edx
  405092:	48 8b 45 e8          	mov    0xffffffffffffffe8(%rbp),%rax
  405096:	48 8b 00             	mov    (%rax),%rax
  405099:	48 89 c7             	mov    %rax,%rdi
  40509c:	48 8b 75 e0          	mov    0xffffffffffffffe0(%rbp),%rsi
  4050a0:	e8 7d 22 00 00       	callq  407322 <_ZN10ACE_MEM_IO4sendEPKvm>
  4050a5:	89 45 fc             	mov    %eax,0xfffffffffffffffc(%rbp)
  4050a8:	83 7d fc 00          	cmpl   $0x0,0xfffffffffffffffc(%rbp)
  4050ac:	0f 9e c0             	setle  %al
  4050af:	84 c0                	test   %al,%al
  4050b1:	74 07                	je     4050ba <odcp_send+0xf0>
  4050b3:	c7 45 fc 1d d1 ff ff 	movl   $0xffffd11d,0xfffffffffffffffc(%rbp)
  4050ba:	81 7d fc 1d d1 ff ff 	cmpl   $0xffffd11d,0xfffffffffffffffc(%rbp)
  4050c1:	75 46                	jne    405109 <odcp_send+0x13f>
  4050c3:	48 8b 05 06 73 22 00 	mov    2257670(%rip),%rax        # 62c3d0 <_DYNAMIC+0x3a0>
  4050ca:	48 8b 00             	mov    (%rax),%rax
  4050cd:	48 85 c0             	test   %rax,%rax
  4050d0:	74 37                	je     405109 <odcp_send+0x13f>
  4050d2:	48 8b 45 e8          	mov    0xffffffffffffffe8(%rbp),%rax
  4050d6:	8b 50 0c             	mov    0xc(%rax),%edx
  4050d9:	48 8b 05 c8 71 22 00 	mov    2257352(%rip),%rax        # 62c2a8 <_DYNAMIC+0x278>
  4050e0:	8b 00                	mov    (%rax),%eax
  4050e2:	39 c2                	cmp    %eax,%edx
  4050e4:	7d 23                	jge    405109 <odcp_send+0x13f>
  4050e6:	48 8b 45 e8          	mov    0xffffffffffffffe8(%rbp),%rax
  4050ea:	8b 40 0c             	mov    0xc(%rax),%eax
  4050ed:	85 c0                	test   %eax,%eax
  4050ef:	78 18                	js     405109 <odcp_send+0x13f>
  4050f1:	48 8b 05 d8 72 22 00 	mov    2257624(%rip),%rax        # 62c3d0 <_DYNAMIC+0x3a0>
  4050f8:	48 8b 10             	mov    (%rax),%rdx
  4050fb:	48 8b 45 e8          	mov    0xffffffffffffffe8(%rbp),%rax
  4050ff:	8b 78 0c             	mov    0xc(%rax),%edi
  405102:	be 01 00 00 00       	mov    $0x1,%esi
  405107:	ff d2                	callq  *%rdx
  405109:	8b 45 fc             	mov    0xfffffffffffffffc(%rbp),%eax
  40510c:	c9                   	leaveq 
  40510d:	c3                   	retq   

000000000040510e <odcp_sendn>:
  40510e:	55                   	push   %rbp
  40510f:	48 89 e5             	mov    %rsp,%rbp
  405112:	48 83 ec 50          	sub    $0x50,%rsp
  405116:	48 89 7d c8          	mov    %rdi,0xffffffffffffffc8(%rbp)
  40511a:	48 89 75 c0          	mov    %rsi,0xffffffffffffffc0(%rbp)
  40511e:	89 55 bc             	mov    %edx,0xffffffffffffffbc(%rbp)
  405121:	c7 45 dc 00 00 00 00 	movl   $0x0,0xffffffffffffffdc(%rbp)
  405128:	48 83 7d c8 00       	cmpq   $0x0,0xffffffffffffffc8(%rbp)
  40512d:	0f 84 3c 02 00 00    	je     40536f <odcp_sendn+0x261>
  405133:	48 8b 45 c8          	mov    0xffffffffffffffc8(%rbp),%rax
  405137:	48 8b 00             	mov    (%rax),%rax
  40513a:	48 85 c0             	test   %rax,%rax
  40513d:	0f 84 2c 02 00 00    	je     40536f <odcp_sendn+0x261>
  405143:	48 8b 45 c8          	mov    0xffffffffffffffc8(%rbp),%rax
  405147:	8b 40 08             	mov    0x8(%rax),%eax
  40514a:	85 c0                	test   %eax,%eax
  40514c:	74 10                	je     40515e <odcp_sendn+0x50>
  40514e:	48 8b 45 c8          	mov    0xffffffffffffffc8(%rbp),%rax
  405152:	8b 40 08             	mov    0x8(%rax),%eax
  405155:	83 f8 01             	cmp    $0x1,%eax
  405158:	0f 85 da 01 00 00    	jne    405338 <odcp_sendn+0x22a>
  40515e:	48 8b 05 53 72 22 00 	mov    2257491(%rip),%rax        # 62c3b8 <_DYNAMIC+0x388>
  405165:	0f b6 00             	movzbl (%rax),%eax
  405168:	84 c0                	test   %al,%al
  40516a:	0f 85 fd 00 00 00    	jne    40526d <odcp_sendn+0x15f>
  405170:	81 7d bc 00 00 a0 00 	cmpl   $0xa00000,0xffffffffffffffbc(%rbp)
  405177:	0f 86 b1 00 00 00    	jbe    40522e <odcp_sendn+0x120>
  40517d:	8b 45 bc             	mov    0xffffffffffffffbc(%rbp),%eax
  405180:	89 45 ec             	mov    %eax,0xffffffffffffffec(%rbp)
  405183:	48 8b 45 c0          	mov    0xffffffffffffffc0(%rbp),%rax
  405187:	48 89 45 e0          	mov    %rax,0xffffffffffffffe0(%rbp)
  40518b:	eb 4c                	jmp    4051d9 <odcp_sendn+0xcb>
  40518d:	48 8b 45 c8          	mov    0xffffffffffffffc8(%rbp),%rax
  405191:	48 8b 00             	mov    (%rax),%rax
  405194:	48 89 c7             	mov    %rax,%rdi
  405197:	48 8b 75 e0          	mov    0xffffffffffffffe0(%rbp),%rsi
  40519b:	41 b8 00 00 00 00    	mov    $0x0,%r8d
  4051a1:	b9 00 00 00 00       	mov    $0x0,%ecx
  4051a6:	ba 00 00 a0 00       	mov    $0xa00000,%edx
  4051ab:	e8 28 22 00 00       	callq  4073d8 <_ZNK15ACE_SOCK_Stream6send_nEPKvmPK14ACE_Time_ValuePm>
  4051b0:	89 45 dc             	mov    %eax,0xffffffffffffffdc(%rbp)
  4051b3:	83 7d dc 00          	cmpl   $0x0,0xffffffffffffffdc(%rbp)
  4051b7:	0f 9e c0             	setle  %al
  4051ba:	84 c0                	test   %al,%al
  4051bc:	74 0c                	je     4051ca <odcp_sendn+0xbc>
  4051be:	c7 45 dc 1d d1 ff ff 	movl   $0xffffd11d,0xffffffffffffffdc(%rbp)
  4051c5:	e9 a5 01 00 00       	jmpq   40536f <odcp_sendn+0x261>
  4051ca:	81 6d ec 00 00 a0 00 	subl   $0xa00000,0xffffffffffffffec(%rbp)
  4051d1:	48 81 45 e0 00 00 a0 	addq   $0xa00000,0xffffffffffffffe0(%rbp)
  4051d8:	00 
  4051d9:	81 7d ec 00 00 a0 00 	cmpl   $0xa00000,0xffffffffffffffec(%rbp)
  4051e0:	7f ab                	jg     40518d <odcp_sendn+0x7f>
  4051e2:	83 7d ec 00          	cmpl   $0x0,0xffffffffffffffec(%rbp)
  4051e6:	0f 8e 83 01 00 00    	jle    40536f <odcp_sendn+0x261>
  4051ec:	8b 45 ec             	mov    0xffffffffffffffec(%rbp),%eax
  4051ef:	48 63 d0             	movslq %eax,%rdx
  4051f2:	48 8b 45 c8          	mov    0xffffffffffffffc8(%rbp),%rax
  4051f6:	48 8b 00             	mov    (%rax),%rax
  4051f9:	48 89 c7             	mov    %rax,%rdi
  4051fc:	48 8b 75 e0          	mov    0xffffffffffffffe0(%rbp),%rsi
  405200:	41 b8 00 00 00 00    	mov    $0x0,%r8d
  405206:	b9 00 00 00 00       	mov    $0x0,%ecx
  40520b:	e8 c8 21 00 00       	callq  4073d8 <_ZNK15ACE_SOCK_Stream6send_nEPKvmPK14ACE_Time_ValuePm>
  405210:	89 45 dc             	mov    %eax,0xffffffffffffffdc(%rbp)
  405213:	83 7d dc 00          	cmpl   $0x0,0xffffffffffffffdc(%rbp)
  405217:	0f 9e c0             	setle  %al
  40521a:	84 c0                	test   %al,%al
  40521c:	0f 84 4d 01 00 00    	je     40536f <odcp_sendn+0x261>
  405222:	c7 45 dc 1d d1 ff ff 	movl   $0xffffd11d,0xffffffffffffffdc(%rbp)
  405229:	e9 41 01 00 00       	jmpq   40536f <odcp_sendn+0x261>
  40522e:	8b 55 bc             	mov    0xffffffffffffffbc(%rbp),%edx
  405231:	48 8b 45 c8          	mov    0xffffffffffffffc8(%rbp),%rax
  405235:	48 8b 00             	mov    (%rax),%rax
  405238:	48 89 c7             	mov    %rax,%rdi
  40523b:	48 8b 75 c0          	mov    0xffffffffffffffc0(%rbp),%rsi
  40523f:	41 b8 00 00 00 00    	mov    $0x0,%r8d
  405245:	b9 00 00 00 00       	mov    $0x0,%ecx
  40524a:	e8 89 21 00 00       	callq  4073d8 <_ZNK15ACE_SOCK_Stream6send_nEPKvmPK14ACE_Time_ValuePm>
  40524f:	89 45 dc             	mov    %eax,0xffffffffffffffdc(%rbp)
  405252:	83 7d dc 00          	cmpl   $0x0,0xffffffffffffffdc(%rbp)
  405256:	0f 9e c0             	setle  %al
  405259:	84 c0                	test   %al,%al
  40525b:	0f 84 0e 01 00 00    	je     40536f <odcp_sendn+0x261>
  405261:	c7 45 dc 1d d1 ff ff 	movl   $0xffffd11d,0xffffffffffffffdc(%rbp)
  405268:	e9 02 01 00 00       	jmpq   40536f <odcp_sendn+0x261>
  40526d:	81 7d bc 00 00 a0 00 	cmpl   $0xa00000,0xffffffffffffffbc(%rbp)
  405274:	0f 86 91 00 00 00    	jbe    40530b <odcp_sendn+0x1fd>
  40527a:	8b 45 bc             	mov    0xffffffffffffffbc(%rbp),%eax
  40527d:	89 45 fc             	mov    %eax,0xfffffffffffffffc(%rbp)
  405280:	48 8b 45 c0          	mov    0xffffffffffffffc0(%rbp),%rax
  405284:	48 89 45 f0          	mov    %rax,0xfffffffffffffff0(%rbp)
  405288:	eb 41                	jmp    4052cb <odcp_sendn+0x1bd>
  40528a:	48 8b 45 c8          	mov    0xffffffffffffffc8(%rbp),%rax
  40528e:	48 8b 00             	mov    (%rax),%rax
  405291:	48 89 c7             	mov    %rax,%rdi
  405294:	48 8b 75 f0          	mov    0xfffffffffffffff0(%rbp),%rsi
  405298:	ba 00 00 a0 00       	mov    $0xa00000,%edx
  40529d:	e8 78 21 00 00       	callq  40741a <_ZNK19ACE_SSL_SOCK_Stream6send_nEPKvi>
  4052a2:	89 45 dc             	mov    %eax,0xffffffffffffffdc(%rbp)
  4052a5:	83 7d dc 00          	cmpl   $0x0,0xffffffffffffffdc(%rbp)
  4052a9:	0f 9e c0             	setle  %al
  4052ac:	84 c0                	test   %al,%al
  4052ae:	74 0c                	je     4052bc <odcp_sendn+0x1ae>
  4052b0:	c7 45 dc 1d d1 ff ff 	movl   $0xffffd11d,0xffffffffffffffdc(%rbp)
  4052b7:	e9 b3 00 00 00       	jmpq   40536f <odcp_sendn+0x261>
  4052bc:	81 6d fc 00 00 a0 00 	subl   $0xa00000,0xfffffffffffffffc(%rbp)
  4052c3:	48 81 45 f0 00 00 a0 	addq   $0xa00000,0xfffffffffffffff0(%rbp)
  4052ca:	00 
  4052cb:	81 7d fc 00 00 a0 00 	cmpl   $0xa00000,0xfffffffffffffffc(%rbp)
  4052d2:	7f b6                	jg     40528a <odcp_sendn+0x17c>
  4052d4:	83 7d fc 00          	cmpl   $0x0,0xfffffffffffffffc(%rbp)
  4052d8:	0f 8e 91 00 00 00    	jle    40536f <odcp_sendn+0x261>
  4052de:	48 8b 45 c8          	mov    0xffffffffffffffc8(%rbp),%rax
  4052e2:	48 8b 00             	mov    (%rax),%rax
  4052e5:	48 89 c7             	mov    %rax,%rdi
  4052e8:	8b 55 fc             	mov    0xfffffffffffffffc(%rbp),%edx
  4052eb:	48 8b 75 f0          	mov    0xfffffffffffffff0(%rbp),%rsi
  4052ef:	e8 26 21 00 00       	callq  40741a <_ZNK19ACE_SSL_SOCK_Stream6send_nEPKvi>
  4052f4:	89 45 dc             	mov    %eax,0xffffffffffffffdc(%rbp)
  4052f7:	83 7d dc 00          	cmpl   $0x0,0xffffffffffffffdc(%rbp)
  4052fb:	0f 9e c0             	setle  %al
  4052fe:	84 c0                	test   %al,%al
  405300:	74 6d                	je     40536f <odcp_sendn+0x261>
  405302:	c7 45 dc 1d d1 ff ff 	movl   $0xffffd11d,0xffffffffffffffdc(%rbp)
  405309:	eb 64                	jmp    40536f <odcp_sendn+0x261>
  40530b:	8b 55 bc             	mov    0xffffffffffffffbc(%rbp),%edx
  40530e:	48 8b 45 c8          	mov    0xffffffffffffffc8(%rbp),%rax
  405312:	48 8b 00             	mov    (%rax),%rax
  405315:	48 89 c7             	mov    %rax,%rdi
  405318:	48 8b 75 c0          	mov    0xffffffffffffffc0(%rbp),%rsi
  40531c:	e8 f9 20 00 00       	callq  40741a <_ZNK19ACE_SSL_SOCK_Stream6send_nEPKvi>
  405321:	89 45 dc             	mov    %eax,0xffffffffffffffdc(%rbp)
  405324:	83 7d dc 00          	cmpl   $0x0,0xffffffffffffffdc(%rbp)
  405328:	0f 9e c0             	setle  %al
  40532b:	84 c0                	test   %al,%al
  40532d:	74 40                	je     40536f <odcp_sendn+0x261>
  40532f:	c7 45 dc 1d d1 ff ff 	movl   $0xffffd11d,0xffffffffffffffdc(%rbp)
  405336:	eb 37                	jmp    40536f <odcp_sendn+0x261>
  405338:	48 8b 45 c8          	mov    0xffffffffffffffc8(%rbp),%rax
  40533c:	8b 40 08             	mov    0x8(%rax),%eax
  40533f:	83 f8 02             	cmp    $0x2,%eax
  405342:	75 2b                	jne    40536f <odcp_sendn+0x261>
  405344:	8b 55 bc             	mov    0xffffffffffffffbc(%rbp),%edx
  405347:	48 8b 45 c8          	mov    0xffffffffffffffc8(%rbp),%rax
  40534b:	48 8b 00             	mov    (%rax),%rax
  40534e:	48 89 c7             	mov    %rax,%rdi
  405351:	48 8b 75 c0          	mov    0xffffffffffffffc0(%rbp),%rsi
  405355:	e8 f4 1f 00 00       	callq  40734e <_ZN14ACE_MEM_Stream6send_nEPKvm>
  40535a:	89 45 dc             	mov    %eax,0xffffffffffffffdc(%rbp)
  40535d:	83 7d dc 00          	cmpl   $0x0,0xffffffffffffffdc(%rbp)
  405361:	0f 9e c0             	setle  %al
  405364:	84 c0                	test   %al,%al
  405366:	74 07                	je     40536f <odcp_sendn+0x261>
  405368:	c7 45 dc 1d d1 ff ff 	movl   $0xffffd11d,0xffffffffffffffdc(%rbp)
  40536f:	81 7d dc 1d d1 ff ff 	cmpl   $0xffffd11d,0xffffffffffffffdc(%rbp)
  405376:	75 46                	jne    4053be <odcp_sendn+0x2b0>
  405378:	48 8b 05 51 70 22 00 	mov    2256977(%rip),%rax        # 62c3d0 <_DYNAMIC+0x3a0>
  40537f:	48 8b 00             	mov    (%rax),%rax
  405382:	48 85 c0             	test   %rax,%rax
  405385:	74 37                	je     4053be <odcp_sendn+0x2b0>
  405387:	48 8b 45 c8          	mov    0xffffffffffffffc8(%rbp),%rax
  40538b:	8b 50 0c             	mov    0xc(%rax),%edx
  40538e:	48 8b 05 13 6f 22 00 	mov    2256659(%rip),%rax        # 62c2a8 <_DYNAMIC+0x278>
  405395:	8b 00                	mov    (%rax),%eax
  405397:	39 c2                	cmp    %eax,%edx
  405399:	7d 23                	jge    4053be <odcp_sendn+0x2b0>
  40539b:	48 8b 45 c8          	mov    0xffffffffffffffc8(%rbp),%rax
  40539f:	8b 40 0c             	mov    0xc(%rax),%eax
  4053a2:	85 c0                	test   %eax,%eax
  4053a4:	78 18                	js     4053be <odcp_sendn+0x2b0>
  4053a6:	48 8b 05 23 70 22 00 	mov    2256931(%rip),%rax        # 62c3d0 <_DYNAMIC+0x3a0>
  4053ad:	48 8b 10             	mov    (%rax),%rdx
  4053b0:	48 8b 45 c8          	mov    0xffffffffffffffc8(%rbp),%rax
  4053b4:	8b 78 0c             	mov    0xc(%rax),%edi
  4053b7:	be 01 00 00 00       	mov    $0x1,%esi
  4053bc:	ff d2                	callq  *%rdx
  4053be:	8b 45 dc             	mov    0xffffffffffffffdc(%rbp),%eax
  4053c1:	c9                   	leaveq 
  4053c2:	c3                   	retq   
  4053c3:	90                   	nop    

00000000004053c4 <odcp_conn_close>:
  4053c4:	55                   	push   %rbp
  4053c5:	48 89 e5             	mov    %rsp,%rbp
  4053c8:	48 83 ec 20          	sub    $0x20,%rsp
  4053cc:	48 89 7d f8          	mov    %rdi,0xfffffffffffffff8(%rbp)
  4053d0:	48 83 7d f8 00       	cmpq   $0x0,0xfffffffffffffff8(%rbp)
  4053d5:	0f 84 03 02 00 00    	je     4055de <odcp_conn_close+0x21a>
  4053db:	48 8b 45 f8          	mov    0xfffffffffffffff8(%rbp),%rax
  4053df:	48 8b 00             	mov    (%rax),%rax
  4053e2:	48 85 c0             	test   %rax,%rax
  4053e5:	0f 84 f3 01 00 00    	je     4055de <odcp_conn_close+0x21a>
  4053eb:	48 8b 45 f8          	mov    0xfffffffffffffff8(%rbp),%rax
  4053ef:	8b 40 08             	mov    0x8(%rax),%eax
  4053f2:	85 c0                	test   %eax,%eax
  4053f4:	74 10                	je     405406 <odcp_conn_close+0x42>
  4053f6:	48 8b 45 f8          	mov    0xfffffffffffffff8(%rbp),%rax
  4053fa:	8b 40 08             	mov    0x8(%rax),%eax
  4053fd:	83 f8 01             	cmp    $0x1,%eax
  405400:	0f 85 9d 00 00 00    	jne    4054a3 <odcp_conn_close+0xdf>
  405406:	48 8b 05 ab 6f 22 00 	mov    2256811(%rip),%rax        # 62c3b8 <_DYNAMIC+0x388>
  40540d:	0f b6 00             	movzbl (%rax),%eax
  405410:	84 c0                	test   %al,%al
  405412:	75 4b                	jne    40545f <odcp_conn_close+0x9b>
  405414:	48 8b 45 f8          	mov    0xfffffffffffffff8(%rbp),%rax
  405418:	48 8b 00             	mov    (%rax),%rax
  40541b:	48 89 c7             	mov    %rax,%rdi
  40541e:	e8 3d 20 00 00       	callq  407460 <_ZN15ACE_SOCK_Stream12close_writerEv>
  405423:	48 8b 45 f8          	mov    0xfffffffffffffff8(%rbp),%rax
  405427:	48 8b 00             	mov    (%rax),%rax
  40542a:	48 89 c7             	mov    %rax,%rdi
  40542d:	e8 36 ee ff ff       	callq  404268 <_ZN15ACE_SOCK_Stream5closeEv@plt>
  405432:	48 8b 45 f8          	mov    0xfffffffffffffff8(%rbp),%rax
  405436:	48 8b 00             	mov    (%rax),%rax
  405439:	48 89 45 e0          	mov    %rax,0xffffffffffffffe0(%rbp)
  40543d:	48 83 7d e0 00       	cmpq   $0x0,0xffffffffffffffe0(%rbp)
  405442:	0f 84 b8 00 00 00    	je     405500 <odcp_conn_close+0x13c>
  405448:	48 8b 7d e0          	mov    0xffffffffffffffe0(%rbp),%rdi
  40544c:	e8 21 0b 00 00       	callq  405f72 <_ZN15ACE_SOCK_StreamD1Ev>
  405451:	48 8b 7d e0          	mov    0xffffffffffffffe0(%rbp),%rdi
  405455:	e8 9e ea ff ff       	callq  403ef8 <_ZdlPv@plt>
  40545a:	e9 a1 00 00 00       	jmpq   405500 <odcp_conn_close+0x13c>
  40545f:	48 8b 45 f8          	mov    0xfffffffffffffff8(%rbp),%rax
  405463:	48 8b 00             	mov    (%rax),%rax
  405466:	48 89 c7             	mov    %rax,%rdi
  405469:	e8 38 20 00 00       	callq  4074a6 <_ZN19ACE_SSL_SOCK_Stream12close_writerEv>
  40546e:	48 8b 45 f8          	mov    0xfffffffffffffff8(%rbp),%rax
  405472:	48 8b 00             	mov    (%rax),%rax
  405475:	48 89 c7             	mov    %rax,%rdi
  405478:	e8 eb 20 00 00       	callq  407568 <_ZN19ACE_SSL_SOCK_Stream5closeEv>
  40547d:	48 8b 45 f8          	mov    0xfffffffffffffff8(%rbp),%rax
  405481:	48 8b 00             	mov    (%rax),%rax
  405484:	48 89 45 e8          	mov    %rax,0xffffffffffffffe8(%rbp)
  405488:	48 83 7d e8 00       	cmpq   $0x0,0xffffffffffffffe8(%rbp)
  40548d:	74 71                	je     405500 <odcp_conn_close+0x13c>
  40548f:	48 8b 7d e8          	mov    0xffffffffffffffe8(%rbp),%rdi
  405493:	e8 90 e8 ff ff       	callq  403d28 <_ZN19ACE_SSL_SOCK_StreamD1Ev@plt>
  405498:	48 8b 7d e8          	mov    0xffffffffffffffe8(%rbp),%rdi
  40549c:	e8 57 ea ff ff       	callq  403ef8 <_ZdlPv@plt>
  4054a1:	eb 5d                	jmp    405500 <odcp_conn_close+0x13c>
  4054a3:	48 8b 45 f8          	mov    0xfffffffffffffff8(%rbp),%rax
  4054a7:	8b 40 08             	mov    0x8(%rax),%eax
  4054aa:	83 f8 02             	cmp    $0x2,%eax
  4054ad:	75 51                	jne    405500 <odcp_conn_close+0x13c>
  4054af:	48 8b 45 f8          	mov    0xfffffffffffffff8(%rbp),%rax
  4054b3:	48 8b 00             	mov    (%rax),%rax
  4054b6:	48 89 c7             	mov    %rax,%rdi
  4054b9:	e8 04 20 00 00       	callq  4074c2 <_ZN14ACE_MEM_Stream12close_writerEv>
  4054be:	48 8b 45 f8          	mov    0xfffffffffffffff8(%rbp),%rax
  4054c2:	48 8b 00             	mov    (%rax),%rax
  4054c5:	48 89 c7             	mov    %rax,%rdi
  4054c8:	e8 5b ee ff ff       	callq  404328 <_ZN10ACE_MEM_IO4finiEv@plt>
  4054cd:	48 8b 45 f8          	mov    0xfffffffffffffff8(%rbp),%rax
  4054d1:	48 8b 00             	mov    (%rax),%rax
  4054d4:	48 89 c7             	mov    %rax,%rdi
  4054d7:	e8 ac e7 ff ff       	callq  403c88 <_ZN8ACE_SOCK5closeEv@plt>
  4054dc:	48 8b 45 f8          	mov    0xfffffffffffffff8(%rbp),%rax
  4054e0:	48 8b 00             	mov    (%rax),%rax
  4054e3:	48 89 45 f0          	mov    %rax,0xfffffffffffffff0(%rbp)
  4054e7:	48 83 7d f0 00       	cmpq   $0x0,0xfffffffffffffff0(%rbp)
  4054ec:	74 12                	je     405500 <odcp_conn_close+0x13c>
  4054ee:	48 8b 7d f0          	mov    0xfffffffffffffff0(%rbp),%rdi
  4054f2:	e8 eb 0e 00 00       	callq  4063e2 <_ZN14ACE_MEM_StreamD1Ev>
  4054f7:	48 8b 7d f0          	mov    0xfffffffffffffff0(%rbp),%rdi
  4054fb:	e8 f8 e9 ff ff       	callq  403ef8 <_ZdlPv@plt>
  405500:	48 8b 45 f8          	mov    0xfffffffffffffff8(%rbp),%rax
  405504:	48 c7 00 00 00 00 00 	movq   $0x0,(%rax)
  40550b:	48 8b 45 f8          	mov    0xfffffffffffffff8(%rbp),%rax
  40550f:	48 8b 40 18          	mov    0x18(%rax),%rax
  405513:	48 85 c0             	test   %rax,%rax
  405516:	74 31                	je     405549 <odcp_conn_close+0x185>
  405518:	48 8b 45 f8          	mov    0xfffffffffffffff8(%rbp),%rax
  40551c:	48 8b 40 10          	mov    0x10(%rax),%rax
  405520:	48 85 c0             	test   %rax,%rax
  405523:	74 24                	je     405549 <odcp_conn_close+0x185>
  405525:	48 8b 45 f8          	mov    0xfffffffffffffff8(%rbp),%rax
  405529:	48 8b 40 10          	mov    0x10(%rax),%rax
  40552d:	48 8b 00             	mov    (%rax),%rax
  405530:	48 83 c0 28          	add    $0x28,%rax
  405534:	48 8b 10             	mov    (%rax),%rdx
  405537:	48 8b 45 f8          	mov    0xfffffffffffffff8(%rbp),%rax
  40553b:	48 8b 70 18          	mov    0x18(%rax),%rsi
  40553f:	48 8b 45 f8          	mov    0xfffffffffffffff8(%rbp),%rax
  405543:	48 8b 78 10          	mov    0x10(%rax),%rdi
  405547:	ff d2                	callq  *%rdx
  405549:	48 8b 45 f8          	mov    0xfffffffffffffff8(%rbp),%rax
  40554d:	48 8b 40 10          	mov    0x10(%rax),%rax
  405551:	48 85 c0             	test   %rax,%rax
  405554:	0f 84 84 00 00 00    	je     4055de <odcp_conn_close+0x21a>
  40555a:	48 8b 45 f8          	mov    0xfffffffffffffff8(%rbp),%rax
  40555e:	48 8b 40 10          	mov    0x10(%rax),%rax
  405562:	48 8b 00             	mov    (%rax),%rax
  405565:	48 83 c0 10          	add    $0x10,%rax
  405569:	48 8b 10             	mov    (%rax),%rdx
  40556c:	48 8b 45 f8          	mov    0xfffffffffffffff8(%rbp),%rax
  405570:	48 8b 78 10          	mov    0x10(%rax),%rdi
  405574:	ff d2                	callq  *%rdx
  405576:	48 8b 45 f8          	mov    0xfffffffffffffff8(%rbp),%rax
  40557a:	48 8b 40 10          	mov    0x10(%rax),%rax
  40557e:	48 8b 00             	mov    (%rax),%rax
  405581:	48 83 c0 18          	add    $0x18,%rax
  405585:	48 8b 10             	mov    (%rax),%rdx
  405588:	48 8b 45 f8          	mov    0xfffffffffffffff8(%rbp),%rax
  40558c:	48 8b 78 10          	mov    0x10(%rax),%rdi
  405590:	ff d2                	callq  *%rdx
  405592:	48 8b 45 f8          	mov    0xfffffffffffffff8(%rbp),%rax
  405596:	48 8b 40 10          	mov    0x10(%rax),%rax
  40559a:	48 85 c0             	test   %rax,%rax
  40559d:	74 1c                	je     4055bb <odcp_conn_close+0x1f7>
  40559f:	48 8b 45 f8          	mov    0xfffffffffffffff8(%rbp),%rax
  4055a3:	48 8b 40 10          	mov    0x10(%rax),%rax
  4055a7:	48 8b 00             	mov    (%rax),%rax
  4055aa:	48 83 c0 08          	add    $0x8,%rax
  4055ae:	48 8b 10             	mov    (%rax),%rdx
  4055b1:	48 8b 45 f8          	mov    0xfffffffffffffff8(%rbp),%rax
  4055b5:	48 8b 78 10          	mov    0x10(%rax),%rdi
  4055b9:	ff d2                	callq  *%rdx
  4055bb:	48 8b 45 f8          	mov    0xfffffffffffffff8(%rbp),%rax
  4055bf:	48 c7 40 10 00 00 00 	movq   $0x0,0x10(%rax)
  4055c6:	00 
  4055c7:	48 8b 45 f8          	mov    0xfffffffffffffff8(%rbp),%rax
  4055cb:	48 c7 40 18 00 00 00 	movq   $0x0,0x18(%rax)
  4055d2:	00 
  4055d3:	48 8b 45 f8          	mov    0xfffffffffffffff8(%rbp),%rax
  4055d7:	c7 40 20 00 00 00 00 	movl   $0x0,0x20(%rax)
  4055de:	c9                   	leaveq 
  4055df:	c3                   	retq   

00000000004055e0 <odcp_connect>:
  4055e0:	55                   	push   %rbp
  4055e1:	48 89 e5             	mov    %rsp,%rbp
  4055e4:	53                   	push   %rbx
  4055e5:	48 81 ec e8 01 00 00 	sub    $0x1e8,%rsp
  4055ec:	48 89 bd d8 fe ff ff 	mov    %rdi,0xfffffffffffffed8(%rbp)
  4055f3:	89 b5 d4 fe ff ff    	mov    %esi,0xfffffffffffffed4(%rbp)
  4055f9:	89 95 d0 fe ff ff    	mov    %edx,0xfffffffffffffed0(%rbp)
  4055ff:	48 89 8d c8 fe ff ff 	mov    %rcx,0xfffffffffffffec8(%rbp)
  405606:	48 c7 45 b8 00 00 00 	movq   $0x0,0xffffffffffffffb8(%rbp)
  40560d:	00 
  40560e:	48 c7 45 c0 00 00 00 	movq   $0x0,0xffffffffffffffc0(%rbp)
  405615:	00 
  405616:	48 8d 7d b7          	lea    0xffffffffffffffb7(%rbp),%rdi
  40561a:	e8 c7 09 00 00       	callq  405fe6 <_ZN18ACE_SOCK_ConnectorC1Ev>
  40561f:	48 8d 7d b6          	lea    0xffffffffffffffb6(%rbp),%rdi
  405623:	e8 c8 09 00 00       	callq  405ff0 <_ZN22ACE_SSL_SOCK_ConnectorC1Ev>
  405628:	48 8d bd e0 fe ff ff 	lea    0xfffffffffffffee0(%rbp),%rdi
  40562f:	e8 d4 e8 ff ff       	callq  403f08 <_ZN17ACE_MEM_ConnectorC1Ev@plt>
  405634:	48 c7 45 c8 00 00 00 	movq   $0x0,0xffffffffffffffc8(%rbp)
  40563b:	00 
  40563c:	48 c7 45 d0 00 00 00 	movq   $0x0,0xffffffffffffffd0(%rbp)
  405643:	00 
  405644:	48 c7 45 d8 00 00 00 	movq   $0x0,0xffffffffffffffd8(%rbp)
  40564b:	00 
  40564c:	c7 45 e0 00 00 00 00 	movl   $0x0,0xffffffffffffffe0(%rbp)
  405653:	c7 45 b0 ff ff 00 00 	movl   $0xffff,0xffffffffffffffb0(%rbp)
  40565a:	c6 45 e7 01          	movb   $0x1,0xffffffffffffffe7(%rbp)
  40565e:	48 83 bd c8 fe ff ff 	cmpq   $0x0,0xfffffffffffffec8(%rbp)
  405665:	00 
  405666:	74 0a                	je     405672 <odcp_connect+0x92>
  405668:	48 83 bd d8 fe ff ff 	cmpq   $0x0,0xfffffffffffffed8(%rbp)
  40566f:	00 
  405670:	75 15                	jne    405687 <odcp_connect+0xa7>
  405672:	c7 45 e0 8c d8 ff ff 	movl   $0xffffd88c,0xffffffffffffffe0(%rbp)
  405679:	8b 45 e0             	mov    0xffffffffffffffe0(%rbp),%eax
  40567c:	89 85 3c fe ff ff    	mov    %eax,0xfffffffffffffe3c(%rbp)
  405682:	e9 a3 07 00 00       	jmpq   405e2a <odcp_connect+0x84a>
  405687:	48 8b 95 c8 fe ff ff 	mov    0xfffffffffffffec8(%rbp),%rdx
  40568e:	8b 85 d0 fe ff ff    	mov    0xfffffffffffffed0(%rbp),%eax
  405694:	89 42 08             	mov    %eax,0x8(%rdx)
  405697:	48 8b 85 c8 fe ff ff 	mov    0xfffffffffffffec8(%rbp),%rax
  40569e:	8b 40 08             	mov    0x8(%rax),%eax
  4056a1:	85 c0                	test   %eax,%eax
  4056a3:	74 13                	je     4056b8 <odcp_connect+0xd8>
  4056a5:	48 8b 85 c8 fe ff ff 	mov    0xfffffffffffffec8(%rbp),%rax
  4056ac:	8b 40 08             	mov    0x8(%rax),%eax
  4056af:	83 f8 01             	cmp    $0x1,%eax
  4056b2:	0f 85 07 05 00 00    	jne    405bbf <odcp_connect+0x5df>
  4056b8:	bf 20 00 00 00       	mov    $0x20,%edi
  4056bd:	e8 66 e8 ff ff       	callq  403f28 <_Znwm@plt>
  4056c2:	48 89 85 40 fe ff ff 	mov    %rax,0xfffffffffffffe40(%rbp)
  4056c9:	8b 85 d4 fe ff ff    	mov    0xfffffffffffffed4(%rbp),%eax
  4056cf:	0f b7 f0             	movzwl %ax,%esi
  4056d2:	48 8b 95 d8 fe ff ff 	mov    0xfffffffffffffed8(%rbp),%rdx
  4056d9:	b9 00 00 00 00       	mov    $0x0,%ecx
  4056de:	48 8b bd 40 fe ff ff 	mov    0xfffffffffffffe40(%rbp),%rdi
  4056e5:	e8 2e e6 ff ff       	callq  403d18 <_ZN13ACE_INET_AddrC1EtPKci@plt>
  4056ea:	48 8b 85 40 fe ff ff 	mov    0xfffffffffffffe40(%rbp),%rax
  4056f1:	48 89 45 b8          	mov    %rax,0xffffffffffffffb8(%rbp)
  4056f5:	48 8b 05 bc 6c 22 00 	mov    2256060(%rip),%rax        # 62c3b8 <_DYNAMIC+0x388>
  4056fc:	0f b6 00             	movzbl (%rax),%eax
  4056ff:	84 c0                	test   %al,%al
  405701:	74 2b                	je     40572e <odcp_connect+0x14e>
  405703:	e9 26 01 00 00       	jmpq   40582e <odcp_connect+0x24e>
  405708:	48 89 85 30 fe ff ff 	mov    %rax,0xfffffffffffffe30(%rbp)
  40570f:	48 8b 9d 30 fe ff ff 	mov    0xfffffffffffffe30(%rbp),%rbx
  405716:	48 8b bd 40 fe ff ff 	mov    0xfffffffffffffe40(%rbp),%rdi
  40571d:	e8 d6 e7 ff ff       	callq  403ef8 <_ZdlPv@plt>
  405722:	48 89 9d 30 fe ff ff 	mov    %rbx,0xfffffffffffffe30(%rbp)
  405729:	e9 e0 06 00 00       	jmpq   405e0e <odcp_connect+0x82e>
  40572e:	bf 04 00 00 00       	mov    $0x4,%edi
  405733:	e8 f0 e7 ff ff       	callq  403f28 <_Znwm@plt>
  405738:	48 89 85 48 fe ff ff 	mov    %rax,0xfffffffffffffe48(%rbp)
  40573f:	48 8b bd 48 fe ff ff 	mov    0xfffffffffffffe48(%rbp),%rdi
  405746:	e8 59 1f 00 00       	callq  4076a4 <_ZN15ACE_SOCK_StreamC1Ev>
  40574b:	48 8b 85 48 fe ff ff 	mov    0xfffffffffffffe48(%rbp),%rax
  405752:	48 89 45 c8          	mov    %rax,0xffffffffffffffc8(%rbp)
  405756:	48 8d 7d 90          	lea    0xffffffffffffff90(%rbp),%rdi
  40575a:	ba 20 a1 07 00       	mov    $0x7a120,%edx
  40575f:	be 00 00 00 00       	mov    $0x0,%esi
  405764:	e8 bf 20 00 00       	callq  407828 <_ZN14ACE_Time_ValueC1Ell>
  405769:	eb 26                	jmp    405791 <odcp_connect+0x1b1>
  40576b:	48 89 85 30 fe ff ff 	mov    %rax,0xfffffffffffffe30(%rbp)
  405772:	48 8b 9d 30 fe ff ff 	mov    0xfffffffffffffe30(%rbp),%rbx
  405779:	48 8b bd 48 fe ff ff 	mov    0xfffffffffffffe48(%rbp),%rdi
  405780:	e8 73 e7 ff ff       	callq  403ef8 <_ZdlPv@plt>
  405785:	48 89 9d 30 fe ff ff 	mov    %rbx,0xfffffffffffffe30(%rbp)
  40578c:	e9 7d 06 00 00       	jmpq   405e0e <odcp_connect+0x82e>
  405791:	48 8b 55 b8          	mov    0xffffffffffffffb8(%rbp),%rdx
  405795:	48 8d 4d 90          	lea    0xffffffffffffff90(%rbp),%rcx
  405799:	48 8b 75 c8          	mov    0xffffffffffffffc8(%rbp),%rsi
  40579d:	48 8d 7d b7          	lea    0xffffffffffffffb7(%rbp),%rdi
  4057a1:	c7 44 24 10 00 00 00 	movl   $0x0,0x10(%rsp)
  4057a8:	00 
  4057a9:	c7 44 24 08 00 00 00 	movl   $0x0,0x8(%rsp)
  4057b0:	00 
  4057b1:	c7 04 24 00 00 00 00 	movl   $0x0,(%rsp)
  4057b8:	41 b9 00 00 00 00    	mov    $0x0,%r9d
  4057be:	48 8b 05 03 6b 22 00 	mov    2255619(%rip),%rax        # 62c2c8 <_DYNAMIC+0x298>
  4057c5:	49 89 c0             	mov    %rax,%r8
  4057c8:	e8 8b e7 ff ff       	callq  403f58 <_ZN18ACE_SOCK_Connector7connectER15ACE_SOCK_StreamRK8ACE_AddrPK14ACE_Time_ValueS4_iiii@plt>
  4057cd:	85 c0                	test   %eax,%eax
  4057cf:	0f 95 c0             	setne  %al
  4057d2:	84 c0                	test   %al,%al
  4057d4:	0f 84 5b 01 00 00    	je     405935 <odcp_connect+0x355>
  4057da:	48 83 7d b8 00       	cmpq   $0x0,0xffffffffffffffb8(%rbp)
  4057df:	74 14                	je     4057f5 <odcp_connect+0x215>
  4057e1:	48 8b 45 b8          	mov    0xffffffffffffffb8(%rbp),%rax
  4057e5:	48 8b 00             	mov    (%rax),%rax
  4057e8:	48 83 c0 08          	add    $0x8,%rax
  4057ec:	48 8b 00             	mov    (%rax),%rax
  4057ef:	48 8b 7d b8          	mov    0xffffffffffffffb8(%rbp),%rdi
  4057f3:	ff d0                	callq  *%rax
  4057f5:	48 8b 45 c8          	mov    0xffffffffffffffc8(%rbp),%rax
  4057f9:	48 89 85 50 fe ff ff 	mov    %rax,0xfffffffffffffe50(%rbp)
  405800:	48 83 bd 50 fe ff ff 	cmpq   $0x0,0xfffffffffffffe50(%rbp)
  405807:	00 
  405808:	74 18                	je     405822 <odcp_connect+0x242>
  40580a:	48 8b bd 50 fe ff ff 	mov    0xfffffffffffffe50(%rbp),%rdi
  405811:	e8 5c 07 00 00       	callq  405f72 <_ZN15ACE_SOCK_StreamD1Ev>
  405816:	48 8b bd 50 fe ff ff 	mov    0xfffffffffffffe50(%rbp),%rdi
  40581d:	e8 d6 e6 ff ff       	callq  403ef8 <_ZdlPv@plt>
  405822:	c7 45 e0 05 d5 ff ff 	movl   $0xffffd505,0xffffffffffffffe0(%rbp)
  405829:	e9 ce 05 00 00       	jmpq   405dfc <odcp_connect+0x81c>
  40582e:	e8 e5 e5 ff ff       	callq  403e18 <_ZN15ACE_SSL_Context8instanceEv@plt>
  405833:	48 89 85 58 fe ff ff 	mov    %rax,0xfffffffffffffe58(%rbp)
  40583a:	bf 18 00 00 00       	mov    $0x18,%edi
  40583f:	e8 e4 e6 ff ff       	callq  403f28 <_Znwm@plt>
  405844:	48 89 85 60 fe ff ff 	mov    %rax,0xfffffffffffffe60(%rbp)
  40584b:	48 8b b5 58 fe ff ff 	mov    0xfffffffffffffe58(%rbp),%rsi
  405852:	48 8b bd 60 fe ff ff 	mov    0xfffffffffffffe60(%rbp),%rdi
  405859:	e8 5a e8 ff ff       	callq  4040b8 <_ZN19ACE_SSL_SOCK_StreamC1EP15ACE_SSL_Context@plt>
  40585e:	48 8b 85 60 fe ff ff 	mov    0xfffffffffffffe60(%rbp),%rax
  405865:	48 89 45 d0          	mov    %rax,0xffffffffffffffd0(%rbp)
  405869:	48 8d 7d 80          	lea    0xffffffffffffff80(%rbp),%rdi
  40586d:	ba 80 84 1e 00       	mov    $0x1e8480,%edx
  405872:	be 00 00 00 00       	mov    $0x0,%esi
  405877:	e8 ac 1f 00 00       	callq  407828 <_ZN14ACE_Time_ValueC1Ell>
  40587c:	eb 26                	jmp    4058a4 <odcp_connect+0x2c4>
  40587e:	48 89 85 30 fe ff ff 	mov    %rax,0xfffffffffffffe30(%rbp)
  405885:	48 8b 9d 30 fe ff ff 	mov    0xfffffffffffffe30(%rbp),%rbx
  40588c:	48 8b bd 60 fe ff ff 	mov    0xfffffffffffffe60(%rbp),%rdi
  405893:	e8 60 e6 ff ff       	callq  403ef8 <_ZdlPv@plt>
  405898:	48 89 9d 30 fe ff ff 	mov    %rbx,0xfffffffffffffe30(%rbp)
  40589f:	e9 6a 05 00 00       	jmpq   405e0e <odcp_connect+0x82e>
  4058a4:	48 8b 55 b8          	mov    0xffffffffffffffb8(%rbp),%rdx
  4058a8:	48 8d 4d 80          	lea    0xffffffffffffff80(%rbp),%rcx
  4058ac:	48 8b 75 d0          	mov    0xffffffffffffffd0(%rbp),%rsi
  4058b0:	48 8d 7d b6          	lea    0xffffffffffffffb6(%rbp),%rdi
  4058b4:	c7 44 24 08 00 00 00 	movl   $0x0,0x8(%rsp)
  4058bb:	00 
  4058bc:	c7 04 24 00 00 00 00 	movl   $0x0,(%rsp)
  4058c3:	41 b9 00 00 00 00    	mov    $0x0,%r9d
  4058c9:	48 8b 05 f8 69 22 00 	mov    2255352(%rip),%rax        # 62c2c8 <_DYNAMIC+0x298>
  4058d0:	49 89 c0             	mov    %rax,%r8
  4058d3:	e8 80 e5 ff ff       	callq  403e58 <_ZN22ACE_SSL_SOCK_Connector7connectER19ACE_SSL_SOCK_StreamRK8ACE_AddrPK14ACE_Time_ValueS4_iii@plt>
  4058d8:	85 c0                	test   %eax,%eax
  4058da:	0f 95 c0             	setne  %al
  4058dd:	84 c0                	test   %al,%al
  4058df:	74 54                	je     405935 <odcp_connect+0x355>
  4058e1:	48 83 7d b8 00       	cmpq   $0x0,0xffffffffffffffb8(%rbp)
  4058e6:	74 14                	je     4058fc <odcp_connect+0x31c>
  4058e8:	48 8b 45 b8          	mov    0xffffffffffffffb8(%rbp),%rax
  4058ec:	48 8b 00             	mov    (%rax),%rax
  4058ef:	48 83 c0 08          	add    $0x8,%rax
  4058f3:	48 8b 00             	mov    (%rax),%rax
  4058f6:	48 8b 7d b8          	mov    0xffffffffffffffb8(%rbp),%rdi
  4058fa:	ff d0                	callq  *%rax
  4058fc:	48 8b 45 d0          	mov    0xffffffffffffffd0(%rbp),%rax
  405900:	48 89 85 68 fe ff ff 	mov    %rax,0xfffffffffffffe68(%rbp)
  405907:	48 83 bd 68 fe ff ff 	cmpq   $0x0,0xfffffffffffffe68(%rbp)
  40590e:	00 
  40590f:	74 18                	je     405929 <odcp_connect+0x349>
  405911:	48 8b bd 68 fe ff ff 	mov    0xfffffffffffffe68(%rbp),%rdi
  405918:	e8 0b e4 ff ff       	callq  403d28 <_ZN19ACE_SSL_SOCK_StreamD1Ev@plt>
  40591d:	48 8b bd 68 fe ff ff 	mov    0xfffffffffffffe68(%rbp),%rdi
  405924:	e8 cf e5 ff ff       	callq  403ef8 <_ZdlPv@plt>
  405929:	c7 45 e0 05 d5 ff ff 	movl   $0xffffd505,0xffffffffffffffe0(%rbp)
  405930:	e9 c7 04 00 00       	jmpq   405dfc <odcp_connect+0x81c>
  405935:	c6 45 af 00          	movb   $0x0,0xffffffffffffffaf(%rbp)
  405939:	c6 45 ae 00          	movb   $0x0,0xffffffffffffffae(%rbp)
  40593d:	48 8b 05 74 6a 22 00 	mov    2255476(%rip),%rax        # 62c3b8 <_DYNAMIC+0x388>
  405944:	0f b6 00             	movzbl (%rax),%eax
  405947:	84 c0                	test   %al,%al
  405949:	0f 85 53 01 00 00    	jne    405aa2 <odcp_connect+0x4c2>
  40594f:	48 8d bd 70 ff ff ff 	lea    0xffffffffffffff70(%rbp),%rdi
  405956:	ba 00 00 00 00       	mov    $0x0,%edx
  40595b:	be 01 00 00 00       	mov    $0x1,%esi
  405960:	e8 c3 1e 00 00       	callq  407828 <_ZN14ACE_Time_ValueC1Ell>
  405965:	48 8b 7d c8          	mov    0xffffffffffffffc8(%rbp),%rdi
  405969:	48 8d 8d 70 ff ff ff 	lea    0xffffffffffffff70(%rbp),%rcx
  405970:	48 8d 75 af          	lea    0xffffffffffffffaf(%rbp),%rsi
  405974:	ba 01 00 00 00       	mov    $0x1,%edx
  405979:	e8 44 13 00 00       	callq  406cc2 <_ZNK11ACE_SOCK_IO4sendEPKvmPK14ACE_Time_Value>
  40597e:	48 83 f8 ff          	cmp    $0xffffffffffffffff,%rax
  405982:	74 27                	je     4059ab <odcp_connect+0x3cb>
  405984:	48 8b 7d c8          	mov    0xffffffffffffffc8(%rbp),%rdi
  405988:	48 8d 8d 70 ff ff ff 	lea    0xffffffffffffff70(%rbp),%rcx
  40598f:	48 8d 75 ae          	lea    0xffffffffffffffae(%rbp),%rsi
  405993:	ba 01 00 00 00       	mov    $0x1,%edx
  405998:	e8 b3 0a 00 00       	callq  406450 <_ZNK11ACE_SOCK_IO4recvEPvmPK14ACE_Time_Value>
  40599d:	48 83 f8 ff          	cmp    $0xffffffffffffffff,%rax
  4059a1:	74 08                	je     4059ab <odcp_connect+0x3cb>
  4059a3:	0f b6 45 ae          	movzbl 0xffffffffffffffae(%rbp),%eax
  4059a7:	84 c0                	test   %al,%al
  4059a9:	75 09                	jne    4059b4 <odcp_connect+0x3d4>
  4059ab:	c6 85 77 fe ff ff 01 	movb   $0x1,0xfffffffffffffe77(%rbp)
  4059b2:	eb 07                	jmp    4059bb <odcp_connect+0x3db>
  4059b4:	c6 85 77 fe ff ff 00 	movb   $0x0,0xfffffffffffffe77(%rbp)
  4059bb:	0f b6 85 77 fe ff ff 	movzbl 0xfffffffffffffe77(%rbp),%eax
  4059c2:	84 c0                	test   %al,%al
  4059c4:	74 66                	je     405a2c <odcp_connect+0x44c>
  4059c6:	48 8b 7d c8          	mov    0xffffffffffffffc8(%rbp),%rdi
  4059ca:	e8 91 1a 00 00       	callq  407460 <_ZN15ACE_SOCK_Stream12close_writerEv>
  4059cf:	48 8b 7d c8          	mov    0xffffffffffffffc8(%rbp),%rdi
  4059d3:	e8 90 e8 ff ff       	callq  404268 <_ZN15ACE_SOCK_Stream5closeEv@plt>
  4059d8:	48 83 7d b8 00       	cmpq   $0x0,0xffffffffffffffb8(%rbp)
  4059dd:	74 14                	je     4059f3 <odcp_connect+0x413>
  4059df:	48 8b 45 b8          	mov    0xffffffffffffffb8(%rbp),%rax
  4059e3:	48 8b 00             	mov    (%rax),%rax
  4059e6:	48 83 c0 08          	add    $0x8,%rax
  4059ea:	48 8b 00             	mov    (%rax),%rax
  4059ed:	48 8b 7d b8          	mov    0xffffffffffffffb8(%rbp),%rdi
  4059f1:	ff d0                	callq  *%rax
  4059f3:	48 8b 45 c8          	mov    0xffffffffffffffc8(%rbp),%rax
  4059f7:	48 89 85 78 fe ff ff 	mov    %rax,0xfffffffffffffe78(%rbp)
  4059fe:	48 83 bd 78 fe ff ff 	cmpq   $0x0,0xfffffffffffffe78(%rbp)
  405a05:	00 
  405a06:	74 18                	je     405a20 <odcp_connect+0x440>
  405a08:	48 8b bd 78 fe ff ff 	mov    0xfffffffffffffe78(%rbp),%rdi
  405a0f:	e8 5e 05 00 00       	callq  405f72 <_ZN15ACE_SOCK_StreamD1Ev>
  405a14:	48 8b bd 78 fe ff ff 	mov    0xfffffffffffffe78(%rbp),%rdi
  405a1b:	e8 d8 e4 ff ff       	callq  403ef8 <_ZdlPv@plt>
  405a20:	c7 45 e0 05 d5 ff ff 	movl   $0xffffd505,0xffffffffffffffe0(%rbp)
  405a27:	e9 d0 03 00 00       	jmpq   405dfc <odcp_connect+0x81c>
  405a2c:	48 83 7d b8 00       	cmpq   $0x0,0xffffffffffffffb8(%rbp)
  405a31:	74 14                	je     405a47 <odcp_connect+0x467>
  405a33:	48 8b 45 b8          	mov    0xffffffffffffffb8(%rbp),%rax
  405a37:	48 8b 00             	mov    (%rax),%rax
  405a3a:	48 83 c0 08          	add    $0x8,%rax
  405a3e:	48 8b 00             	mov    (%rax),%rax
  405a41:	48 8b 7d b8          	mov    0xffffffffffffffb8(%rbp),%rdi
  405a45:	ff d0                	callq  *%rax
  405a47:	48 8b 7d c8          	mov    0xffffffffffffffc8(%rbp),%rdi
  405a4b:	be 00 08 00 00       	mov    $0x800,%esi
  405a50:	e8 93 e9 ff ff       	callq  4043e8 <_ZNK11ACE_IPC_SAP7disableEi@plt>
  405a55:	48 8b 7d c8          	mov    0xffffffffffffffc8(%rbp),%rdi
  405a59:	48 8d 4d b0          	lea    0xffffffffffffffb0(%rbp),%rcx
  405a5d:	41 b8 04 00 00 00    	mov    $0x4,%r8d
  405a63:	ba 07 00 00 00       	mov    $0x7,%edx
  405a68:	be 01 00 00 00       	mov    $0x1,%esi
  405a6d:	e8 f4 1c 00 00       	callq  407766 <_ZNK8ACE_SOCK10set_optionEiiPvi>
  405a72:	48 8b 7d c8          	mov    0xffffffffffffffc8(%rbp),%rdi
  405a76:	48 8d 4d b0          	lea    0xffffffffffffffb0(%rbp),%rcx
  405a7a:	41 b8 04 00 00 00    	mov    $0x4,%r8d
  405a80:	ba 08 00 00 00       	mov    $0x8,%edx
  405a85:	be 01 00 00 00       	mov    $0x1,%esi
  405a8a:	e8 d7 1c 00 00       	callq  407766 <_ZNK8ACE_SOCK10set_optionEiiPvi>
  405a8f:	48 8b 95 c8 fe ff ff 	mov    0xfffffffffffffec8(%rbp),%rdx
  405a96:	48 8b 45 c8          	mov    0xffffffffffffffc8(%rbp),%rax
  405a9a:	48 89 02             	mov    %rax,(%rdx)
  405a9d:	e9 5a 03 00 00       	jmpq   405dfc <odcp_connect+0x81c>
  405aa2:	48 8d 75 af          	lea    0xffffffffffffffaf(%rbp),%rsi
  405aa6:	48 8b 7d d0          	mov    0xffffffffffffffd0(%rbp),%rdi
  405aaa:	ba 01 00 00 00       	mov    $0x1,%edx
  405aaf:	e8 3e 13 00 00       	callq  406df2 <_ZNK19ACE_SSL_SOCK_Stream4sendEPKvm>
  405ab4:	48 83 f8 ff          	cmp    $0xffffffffffffffff,%rax
  405ab8:	74 20                	je     405ada <odcp_connect+0x4fa>
  405aba:	48 8d 75 ae          	lea    0xffffffffffffffae(%rbp),%rsi
  405abe:	48 8b 7d d0          	mov    0xffffffffffffffd0(%rbp),%rdi
  405ac2:	ba 01 00 00 00       	mov    $0x1,%edx
  405ac7:	e8 ca 0b 00 00       	callq  406696 <_ZNK19ACE_SSL_SOCK_Stream4recvEPvm>
  405acc:	48 83 f8 ff          	cmp    $0xffffffffffffffff,%rax
  405ad0:	74 08                	je     405ada <odcp_connect+0x4fa>
  405ad2:	0f b6 45 ae          	movzbl 0xffffffffffffffae(%rbp),%eax
  405ad6:	84 c0                	test   %al,%al
  405ad8:	75 09                	jne    405ae3 <odcp_connect+0x503>
  405ada:	c6 85 87 fe ff ff 01 	movb   $0x1,0xfffffffffffffe87(%rbp)
  405ae1:	eb 07                	jmp    405aea <odcp_connect+0x50a>
  405ae3:	c6 85 87 fe ff ff 00 	movb   $0x0,0xfffffffffffffe87(%rbp)
  405aea:	0f b6 85 87 fe ff ff 	movzbl 0xfffffffffffffe87(%rbp),%eax
  405af1:	84 c0                	test   %al,%al
  405af3:	74 54                	je     405b49 <odcp_connect+0x569>
  405af5:	48 83 7d b8 00       	cmpq   $0x0,0xffffffffffffffb8(%rbp)
  405afa:	74 14                	je     405b10 <odcp_connect+0x530>
  405afc:	48 8b 45 b8          	mov    0xffffffffffffffb8(%rbp),%rax
  405b00:	48 8b 00             	mov    (%rax),%rax
  405b03:	48 83 c0 08          	add    $0x8,%rax
  405b07:	48 8b 00             	mov    (%rax),%rax
  405b0a:	48 8b 7d b8          	mov    0xffffffffffffffb8(%rbp),%rdi
  405b0e:	ff d0                	callq  *%rax
  405b10:	48 8b 45 d0          	mov    0xffffffffffffffd0(%rbp),%rax
  405b14:	48 89 85 88 fe ff ff 	mov    %rax,0xfffffffffffffe88(%rbp)
  405b1b:	48 83 bd 88 fe ff ff 	cmpq   $0x0,0xfffffffffffffe88(%rbp)
  405b22:	00 
  405b23:	74 18                	je     405b3d <odcp_connect+0x55d>
  405b25:	48 8b bd 88 fe ff ff 	mov    0xfffffffffffffe88(%rbp),%rdi
  405b2c:	e8 f7 e1 ff ff       	callq  403d28 <_ZN19ACE_SSL_SOCK_StreamD1Ev@plt>
  405b31:	48 8b bd 88 fe ff ff 	mov    0xfffffffffffffe88(%rbp),%rdi
  405b38:	e8 bb e3 ff ff       	callq  403ef8 <_ZdlPv@plt>
  405b3d:	c7 45 e0 05 d5 ff ff 	movl   $0xffffd505,0xffffffffffffffe0(%rbp)
  405b44:	e9 b3 02 00 00       	jmpq   405dfc <odcp_connect+0x81c>
  405b49:	48 83 7d b8 00       	cmpq   $0x0,0xffffffffffffffb8(%rbp)
  405b4e:	74 14                	je     405b64 <odcp_connect+0x584>
  405b50:	48 8b 45 b8          	mov    0xffffffffffffffb8(%rbp),%rax
  405b54:	48 8b 00             	mov    (%rax),%rax
  405b57:	48 83 c0 08          	add    $0x8,%rax
  405b5b:	48 8b 00             	mov    (%rax),%rax
  405b5e:	48 8b 7d b8          	mov    0xffffffffffffffb8(%rbp),%rdi
  405b62:	ff d0                	callq  *%rax
  405b64:	48 8b 7d d0          	mov    0xffffffffffffffd0(%rbp),%rdi
  405b68:	be 00 08 00 00       	mov    $0x800,%esi
  405b6d:	e8 46 e1 ff ff       	callq  403cb8 <_ZNK12ACE_SSL_SOCK7disableEi@plt>
  405b72:	48 8b 7d d0          	mov    0xffffffffffffffd0(%rbp),%rdi
  405b76:	48 8d 4d b0          	lea    0xffffffffffffffb0(%rbp),%rcx
  405b7a:	41 b8 04 00 00 00    	mov    $0x4,%r8d
  405b80:	ba 07 00 00 00       	mov    $0x7,%edx
  405b85:	be 01 00 00 00       	mov    $0x1,%esi
  405b8a:	e8 1d 1c 00 00       	callq  4077ac <_ZNK12ACE_SSL_SOCK10set_optionEiiPvi>
  405b8f:	48 8b 7d d0          	mov    0xffffffffffffffd0(%rbp),%rdi
  405b93:	48 8d 4d b0          	lea    0xffffffffffffffb0(%rbp),%rcx
  405b97:	41 b8 04 00 00 00    	mov    $0x4,%r8d
  405b9d:	ba 08 00 00 00       	mov    $0x8,%edx
  405ba2:	be 01 00 00 00       	mov    $0x1,%esi
  405ba7:	e8 00 1c 00 00       	callq  4077ac <_ZNK12ACE_SSL_SOCK10set_optionEiiPvi>
  405bac:	48 8b 95 c8 fe ff ff 	mov    0xfffffffffffffec8(%rbp),%rdx
  405bb3:	48 8b 45 d0          	mov    0xffffffffffffffd0(%rbp),%rax
  405bb7:	48 89 02             	mov    %rax,(%rdx)
  405bba:	e9 3d 02 00 00       	jmpq   405dfc <odcp_connect+0x81c>
  405bbf:	48 8b 85 c8 fe ff ff 	mov    0xfffffffffffffec8(%rbp),%rax
  405bc6:	8b 40 08             	mov    0x8(%rax),%eax
  405bc9:	83 f8 02             	cmp    $0x2,%eax
  405bcc:	0f 85 2a 02 00 00    	jne    405dfc <odcp_connect+0x81c>
  405bd2:	bf 50 00 00 00       	mov    $0x50,%edi
  405bd7:	e8 4c e3 ff ff       	callq  403f28 <_Znwm@plt>
  405bdc:	48 89 85 90 fe ff ff 	mov    %rax,0xfffffffffffffe90(%rbp)
  405be3:	8b 85 d4 fe ff ff    	mov    0xfffffffffffffed4(%rbp),%eax
  405be9:	0f b7 f0             	movzwl %ax,%esi
  405bec:	48 8b bd 90 fe ff ff 	mov    0xfffffffffffffe90(%rbp),%rdi
  405bf3:	e8 e0 e0 ff ff       	callq  403cd8 <_ZN12ACE_MEM_AddrC1Et@plt>
  405bf8:	48 8b 85 90 fe ff ff 	mov    0xfffffffffffffe90(%rbp),%rax
  405bff:	48 89 45 c0          	mov    %rax,0xffffffffffffffc0(%rbp)
  405c03:	bf 28 00 00 00       	mov    $0x28,%edi
  405c08:	e8 1b e3 ff ff       	callq  403f28 <_Znwm@plt>
  405c0d:	48 89 85 a0 fe ff ff 	mov    %rax,0xfffffffffffffea0(%rbp)
  405c14:	eb 26                	jmp    405c3c <odcp_connect+0x65c>
  405c16:	48 89 85 30 fe ff ff 	mov    %rax,0xfffffffffffffe30(%rbp)
  405c1d:	48 8b 9d 30 fe ff ff 	mov    0xfffffffffffffe30(%rbp),%rbx
  405c24:	48 8b bd 90 fe ff ff 	mov    0xfffffffffffffe90(%rbp),%rdi
  405c2b:	e8 c8 e2 ff ff       	callq  403ef8 <_ZdlPv@plt>
  405c30:	48 89 9d 30 fe ff ff 	mov    %rbx,0xfffffffffffffe30(%rbp)
  405c37:	e9 d2 01 00 00       	jmpq   405e0e <odcp_connect+0x82e>
  405c3c:	48 8b 85 a0 fe ff ff 	mov    0xfffffffffffffea0(%rbp),%rax
  405c43:	48 89 85 98 fe ff ff 	mov    %rax,0xfffffffffffffe98(%rbp)
  405c4a:	48 8b bd 98 fe ff ff 	mov    0xfffffffffffffe98(%rbp),%rdi
  405c51:	e8 ae 1a 00 00       	callq  407704 <_ZN14ACE_MEM_StreamC1Ev>
  405c56:	48 8b 85 98 fe ff ff 	mov    0xfffffffffffffe98(%rbp),%rax
  405c5d:	48 89 45 d8          	mov    %rax,0xffffffffffffffd8(%rbp)
  405c61:	bf 10 00 00 00       	mov    $0x10,%edi
  405c66:	e8 bd e2 ff ff       	callq  403f28 <_Znwm@plt>
  405c6b:	48 89 85 b0 fe ff ff 	mov    %rax,0xfffffffffffffeb0(%rbp)
  405c72:	eb 26                	jmp    405c9a <odcp_connect+0x6ba>
  405c74:	48 89 85 30 fe ff ff 	mov    %rax,0xfffffffffffffe30(%rbp)
  405c7b:	48 8b 9d 30 fe ff ff 	mov    0xfffffffffffffe30(%rbp),%rbx
  405c82:	48 8b bd 98 fe ff ff 	mov    0xfffffffffffffe98(%rbp),%rdi
  405c89:	e8 6a e2 ff ff       	callq  403ef8 <_ZdlPv@plt>
  405c8e:	48 89 9d 30 fe ff ff 	mov    %rbx,0xfffffffffffffe30(%rbp)
  405c95:	e9 74 01 00 00       	jmpq   405e0e <odcp_connect+0x82e>
  405c9a:	48 8b 85 b0 fe ff ff 	mov    0xfffffffffffffeb0(%rbp),%rax
  405ca1:	48 89 85 a8 fe ff ff 	mov    %rax,0xfffffffffffffea8(%rbp)
  405ca8:	ba 00 00 00 00       	mov    $0x0,%edx
  405cad:	be 03 00 00 00       	mov    $0x3,%esi
  405cb2:	48 8b bd a8 fe ff ff 	mov    0xfffffffffffffea8(%rbp),%rdi
  405cb9:	e8 6a 1b 00 00       	callq  407828 <_ZN14ACE_Time_ValueC1Ell>
  405cbe:	48 8b 85 a8 fe ff ff 	mov    0xfffffffffffffea8(%rbp),%rax
  405cc5:	48 89 45 e8          	mov    %rax,0xffffffffffffffe8(%rbp)
  405cc9:	48 8b 7d c0          	mov    0xffffffffffffffc0(%rbp),%rdi
  405ccd:	e8 36 03 00 00       	callq  406008 <_ZNK12ACE_MEM_Addr15get_remote_addrEv>
  405cd2:	48 89 c2             	mov    %rax,%rdx
  405cd5:	48 8b 4d e8          	mov    0xffffffffffffffe8(%rbp),%rcx
  405cd9:	48 8b 75 d8          	mov    0xffffffffffffffd8(%rbp),%rsi
  405cdd:	48 8d bd e0 fe ff ff 	lea    0xfffffffffffffee0(%rbp),%rdi
  405ce4:	c7 44 24 08 00 00 00 	movl   $0x0,0x8(%rsp)
  405ceb:	00 
  405cec:	c7 04 24 00 00 00 00 	movl   $0x0,(%rsp)
  405cf3:	41 b9 00 00 00 00    	mov    $0x0,%r9d
  405cf9:	48 8b 05 c8 65 22 00 	mov    2254280(%rip),%rax        # 62c2c8 <_DYNAMIC+0x298>
  405d00:	49 89 c0             	mov    %rax,%r8
  405d03:	e8 e0 e2 ff ff       	callq  403fe8 <_ZN17ACE_MEM_Connector7connectER14ACE_MEM_StreamRK13ACE_INET_AddrP14ACE_Time_ValueRK8ACE_Addriii@plt>
  405d08:	89 85 bc fe ff ff    	mov    %eax,0xfffffffffffffebc(%rbp)
  405d0e:	eb 26                	jmp    405d36 <odcp_connect+0x756>
  405d10:	48 89 85 30 fe ff ff 	mov    %rax,0xfffffffffffffe30(%rbp)
  405d17:	48 8b 9d 30 fe ff ff 	mov    0xfffffffffffffe30(%rbp),%rbx
  405d1e:	48 8b bd a8 fe ff ff 	mov    0xfffffffffffffea8(%rbp),%rdi
  405d25:	e8 ce e1 ff ff       	callq  403ef8 <_ZdlPv@plt>
  405d2a:	48 89 9d 30 fe ff ff 	mov    %rbx,0xfffffffffffffe30(%rbp)
  405d31:	e9 d8 00 00 00       	jmpq   405e0e <odcp_connect+0x82e>
  405d36:	83 bd bc fe ff ff 00 	cmpl   $0x0,0xfffffffffffffebc(%rbp)
  405d3d:	0f 95 c0             	setne  %al
  405d40:	84 c0                	test   %al,%al
  405d42:	74 5a                	je     405d9e <odcp_connect+0x7be>
  405d44:	48 8b 7d e8          	mov    0xffffffffffffffe8(%rbp),%rdi
  405d48:	e8 ab e1 ff ff       	callq  403ef8 <_ZdlPv@plt>
  405d4d:	48 83 7d c0 00       	cmpq   $0x0,0xffffffffffffffc0(%rbp)
  405d52:	74 14                	je     405d68 <odcp_connect+0x788>
  405d54:	48 8b 45 c0          	mov    0xffffffffffffffc0(%rbp),%rax
  405d58:	48 8b 00             	mov    (%rax),%rax
  405d5b:	48 83 c0 08          	add    $0x8,%rax
  405d5f:	48 8b 00             	mov    (%rax),%rax
  405d62:	48 8b 7d c0          	mov    0xffffffffffffffc0(%rbp),%rdi
  405d66:	ff d0                	callq  *%rax
  405d68:	48 8b 45 d8          	mov    0xffffffffffffffd8(%rbp),%rax
  405d6c:	48 89 85 c0 fe ff ff 	mov    %rax,0xfffffffffffffec0(%rbp)
  405d73:	48 83 bd c0 fe ff ff 	cmpq   $0x0,0xfffffffffffffec0(%rbp)
  405d7a:	00 
  405d7b:	74 18                	je     405d95 <odcp_connect+0x7b5>
  405d7d:	48 8b bd c0 fe ff ff 	mov    0xfffffffffffffec0(%rbp),%rdi
  405d84:	e8 59 06 00 00       	callq  4063e2 <_ZN14ACE_MEM_StreamD1Ev>
  405d89:	48 8b bd c0 fe ff ff 	mov    0xfffffffffffffec0(%rbp),%rdi
  405d90:	e8 63 e1 ff ff       	callq  403ef8 <_ZdlPv@plt>
  405d95:	c7 45 e0 05 d5 ff ff 	movl   $0xffffd505,0xffffffffffffffe0(%rbp)
  405d9c:	eb 5e                	jmp    405dfc <odcp_connect+0x81c>
  405d9e:	48 8b 7d e8          	mov    0xffffffffffffffe8(%rbp),%rdi
  405da2:	e8 51 e1 ff ff       	callq  403ef8 <_ZdlPv@plt>
  405da7:	48 83 7d c0 00       	cmpq   $0x0,0xffffffffffffffc0(%rbp)
  405dac:	74 14                	je     405dc2 <odcp_connect+0x7e2>
  405dae:	48 8b 45 c0          	mov    0xffffffffffffffc0(%rbp),%rax
  405db2:	48 8b 00             	mov    (%rax),%rax
  405db5:	48 83 c0 08          	add    $0x8,%rax
  405db9:	48 8b 00             	mov    (%rax),%rax
  405dbc:	48 8b 7d c0          	mov    0xffffffffffffffc0(%rbp),%rdi
  405dc0:	ff d0                	callq  *%rax
  405dc2:	48 8b 95 c8 fe ff ff 	mov    0xfffffffffffffec8(%rbp),%rdx
  405dc9:	48 8b 45 d8          	mov    0xffffffffffffffd8(%rbp),%rax
  405dcd:	48 89 02             	mov    %rax,(%rdx)
  405dd0:	48 8b 85 c8 fe ff ff 	mov    0xfffffffffffffec8(%rbp),%rax
  405dd7:	48 c7 40 18 00 00 00 	movq   $0x0,0x18(%rax)
  405dde:	00 
  405ddf:	48 8b 85 c8 fe ff ff 	mov    0xfffffffffffffec8(%rbp),%rax
  405de6:	48 c7 40 10 00 00 00 	movq   $0x0,0x10(%rax)
  405ded:	00 
  405dee:	48 8b 85 c8 fe ff ff 	mov    0xfffffffffffffec8(%rbp),%rax
  405df5:	c7 40 20 00 00 00 00 	movl   $0x0,0x20(%rax)
  405dfc:	8b 45 e0             	mov    0xffffffffffffffe0(%rbp),%eax
  405dff:	89 85 3c fe ff ff    	mov    %eax,0xfffffffffffffe3c(%rbp)
  405e05:	eb 23                	jmp    405e2a <odcp_connect+0x84a>
  405e07:	48 89 85 30 fe ff ff 	mov    %rax,0xfffffffffffffe30(%rbp)
  405e0e:	48 8b 9d 30 fe ff ff 	mov    0xfffffffffffffe30(%rbp),%rbx
  405e15:	48 8d bd e0 fe ff ff 	lea    0xfffffffffffffee0(%rbp),%rdi
  405e1c:	e8 d9 05 00 00       	callq  4063fa <_ZN17ACE_MEM_ConnectorD1Ev>
  405e21:	48 89 9d 30 fe ff ff 	mov    %rbx,0xfffffffffffffe30(%rbp)
  405e28:	eb 1e                	jmp    405e48 <odcp_connect+0x868>
  405e2a:	48 8d bd e0 fe ff ff 	lea    0xfffffffffffffee0(%rbp),%rdi
  405e31:	e8 c4 05 00 00       	callq  4063fa <_ZN17ACE_MEM_ConnectorD1Ev>
  405e36:	48 8d 7d b6          	lea    0xffffffffffffffb6(%rbp),%rdi
  405e3a:	e8 39 de ff ff       	callq  403c78 <_ZN22ACE_SSL_SOCK_ConnectorD1Ev@plt>
  405e3f:	eb 20                	jmp    405e61 <odcp_connect+0x881>
  405e41:	48 89 85 30 fe ff ff 	mov    %rax,0xfffffffffffffe30(%rbp)
  405e48:	48 8b 9d 30 fe ff ff 	mov    0xfffffffffffffe30(%rbp),%rbx
  405e4f:	48 8d 7d b6          	lea    0xffffffffffffffb6(%rbp),%rdi
  405e53:	e8 20 de ff ff       	callq  403c78 <_ZN22ACE_SSL_SOCK_ConnectorD1Ev@plt>
  405e58:	48 89 9d 30 fe ff ff 	mov    %rbx,0xfffffffffffffe30(%rbp)
  405e5f:	eb 1e                	jmp    405e7f <odcp_connect+0x89f>
  405e61:	48 8d 7d b7          	lea    0xffffffffffffffb7(%rbp),%rdi
  405e65:	e8 72 01 00 00       	callq  405fdc <_ZN18ACE_SOCK_ConnectorD1Ev>
  405e6a:	8b 85 3c fe ff ff    	mov    0xfffffffffffffe3c(%rbp),%eax
  405e70:	89 85 38 fe ff ff    	mov    %eax,0xfffffffffffffe38(%rbp)
  405e76:	eb 2a                	jmp    405ea2 <odcp_connect+0x8c2>
  405e78:	48 89 85 30 fe ff ff 	mov    %rax,0xfffffffffffffe30(%rbp)
  405e7f:	48 8b 9d 30 fe ff ff 	mov    0xfffffffffffffe30(%rbp),%rbx
  405e86:	48 8d 7d b7          	lea    0xffffffffffffffb7(%rbp),%rdi
  405e8a:	e8 4d 01 00 00       	callq  405fdc <_ZN18ACE_SOCK_ConnectorD1Ev>
  405e8f:	48 89 9d 30 fe ff ff 	mov    %rbx,0xfffffffffffffe30(%rbp)
  405e96:	48 8b bd 30 fe ff ff 	mov    0xfffffffffffffe30(%rbp),%rdi
  405e9d:	e8 66 e4 ff ff       	callq  404308 <_Unwind_Resume@plt>
  405ea2:	8b 85 38 fe ff ff    	mov    0xfffffffffffffe38(%rbp),%eax
  405ea8:	48 81 c4 e8 01 00 00 	add    $0x1e8,%rsp
  405eaf:	5b                   	pop    %rbx
  405eb0:	c9                   	leaveq 
  405eb1:	c3                   	retq   

0000000000405eb2 <_ZN15ACE_Errno_GuardC1ERi>:
  405eb2:	55                   	push   %rbp
  405eb3:	48 89 e5             	mov    %rsp,%rbp
  405eb6:	48 89 7d f8          	mov    %rdi,0xfffffffffffffff8(%rbp)
  405eba:	48 89 75 f0          	mov    %rsi,0xfffffffffffffff0(%rbp)
  405ebe:	48 8b 55 f8          	mov    0xfffffffffffffff8(%rbp),%rdx
  405ec2:	48 8b 45 f0          	mov    0xfffffffffffffff0(%rbp),%rax
  405ec6:	48 89 02             	mov    %rax,(%rdx)
  405ec9:	48 8b 45 f0          	mov    0xfffffffffffffff0(%rbp),%rax
  405ecd:	8b 10                	mov    (%rax),%edx
  405ecf:	48 8b 45 f8          	mov    0xfffffffffffffff8(%rbp),%rax
  405ed3:	89 50 08             	mov    %edx,0x8(%rax)
  405ed6:	c9                   	leaveq 
  405ed7:	c3                   	retq   

0000000000405ed8 <_ZN15ACE_Errno_GuardD1Ev>:
  405ed8:	55                   	push   %rbp
  405ed9:	48 89 e5             	mov    %rsp,%rbp
  405edc:	48 89 7d f8          	mov    %rdi,0xfffffffffffffff8(%rbp)
  405ee0:	48 8b 45 f8          	mov    0xfffffffffffffff8(%rbp),%rax
  405ee4:	48 8b 10             	mov    (%rax),%rdx
  405ee7:	48 8b 45 f8          	mov    0xfffffffffffffff8(%rbp),%rax
  405eeb:	8b 40 08             	mov    0x8(%rax),%eax
  405eee:	89 02                	mov    %eax,(%rdx)
  405ef0:	c9                   	leaveq 
  405ef1:	c3                   	retq   

0000000000405ef2 <_ZnwmPv>:
  405ef2:	55                   	push   %rbp
  405ef3:	48 89 e5             	mov    %rsp,%rbp
  405ef6:	48 89 7d f8          	mov    %rdi,0xfffffffffffffff8(%rbp)
  405efa:	48 89 75 f0          	mov    %rsi,0xfffffffffffffff0(%rbp)
  405efe:	48 8b 45 f0          	mov    0xfffffffffffffff0(%rbp),%rax
  405f02:	c9                   	leaveq 
  405f03:	c3                   	retq   

0000000000405f04 <_ZdlPvS_>:
  405f04:	55                   	push   %rbp
  405f05:	48 89 e5             	mov    %rsp,%rbp
  405f08:	48 89 7d f8          	mov    %rdi,0xfffffffffffffff8(%rbp)
  405f0c:	48 89 75 f0          	mov    %rsi,0xfffffffffffffff0(%rbp)
  405f10:	c9                   	leaveq 
  405f11:	c3                   	retq   

0000000000405f12 <_ZN11ACE_IPC_SAPD2Ev>:
  405f12:	55                   	push   %rbp
  405f13:	48 89 e5             	mov    %rsp,%rbp
  405f16:	48 89 7d f8          	mov    %rdi,0xfffffffffffffff8(%rbp)
  405f1a:	c9                   	leaveq 
  405f1b:	c3                   	retq   

0000000000405f1c <_ZNK11ACE_IPC_SAP10get_handleEv>:
  405f1c:	55                   	push   %rbp
  405f1d:	48 89 e5             	mov    %rsp,%rbp
  405f20:	48 89 7d f8          	mov    %rdi,0xfffffffffffffff8(%rbp)
  405f24:	48 8b 45 f8          	mov    0xfffffffffffffff8(%rbp),%rax
  405f28:	8b 00                	mov    (%rax),%eax
  405f2a:	c9                   	leaveq 
  405f2b:	c3                   	retq   

0000000000405f2c <_ZN11ACE_IPC_SAP10set_handleEi>:
  405f2c:	55                   	push   %rbp
  405f2d:	48 89 e5             	mov    %rsp,%rbp
  405f30:	48 89 7d f8          	mov    %rdi,0xfffffffffffffff8(%rbp)
  405f34:	89 75 f4             	mov    %esi,0xfffffffffffffff4(%rbp)
  405f37:	48 8b 55 f8          	mov    0xfffffffffffffff8(%rbp),%rdx
  405f3b:	8b 45 f4             	mov    0xfffffffffffffff4(%rbp),%eax
  405f3e:	89 02                	mov    %eax,(%rdx)
  405f40:	c9                   	leaveq 
  405f41:	c3                   	retq   

0000000000405f42 <_ZN8ACE_SOCKD2Ev>:
  405f42:	55                   	push   %rbp
  405f43:	48 89 e5             	mov    %rsp,%rbp
  405f46:	48 83 ec 10          	sub    $0x10,%rsp
  405f4a:	48 89 7d f8          	mov    %rdi,0xfffffffffffffff8(%rbp)
  405f4e:	48 8b 7d f8          	mov    0xfffffffffffffff8(%rbp),%rdi
  405f52:	e8 bb ff ff ff       	callq  405f12 <_ZN11ACE_IPC_SAPD2Ev>
  405f57:	c9                   	leaveq 
  405f58:	c3                   	retq   
  405f59:	90                   	nop    

0000000000405f5a <_ZN11ACE_SOCK_IOD2Ev>:
  405f5a:	55                   	push   %rbp
  405f5b:	48 89 e5             	mov    %rsp,%rbp
  405f5e:	48 83 ec 10          	sub    $0x10,%rsp
  405f62:	48 89 7d f8          	mov    %rdi,0xfffffffffffffff8(%rbp)
  405f66:	48 8b 7d f8          	mov    0xfffffffffffffff8(%rbp),%rdi
  405f6a:	e8 d3 ff ff ff       	callq  405f42 <_ZN8ACE_SOCKD2Ev>
  405f6f:	c9                   	leaveq 
  405f70:	c3                   	retq   
  405f71:	90                   	nop    

0000000000405f72 <_ZN15ACE_SOCK_StreamD1Ev>:
  405f72:	55                   	push   %rbp
  405f73:	48 89 e5             	mov    %rsp,%rbp
  405f76:	48 83 ec 10          	sub    $0x10,%rsp
  405f7a:	48 89 7d f8          	mov    %rdi,0xfffffffffffffff8(%rbp)
  405f7e:	48 8b 7d f8          	mov    0xfffffffffffffff8(%rbp),%rdi
  405f82:	e8 d3 ff ff ff       	callq  405f5a <_ZN11ACE_SOCK_IOD2Ev>
  405f87:	c9                   	leaveq 
  405f88:	c3                   	retq   
  405f89:	90                   	nop    

0000000000405f8a <_ZN12ACE_SSL_SOCK10set_handleEi>:
  405f8a:	55                   	push   %rbp
  405f8b:	48 89 e5             	mov    %rsp,%rbp
  405f8e:	48 83 ec 10          	sub    $0x10,%rsp
  405f92:	48 89 7d f8          	mov    %rdi,0xfffffffffffffff8(%rbp)
  405f96:	89 75 f4             	mov    %esi,0xfffffffffffffff4(%rbp)
  405f99:	48 8b 7d f8          	mov    0xfffffffffffffff8(%rbp),%rdi
  405f9d:	8b 75 f4             	mov    0xfffffffffffffff4(%rbp),%esi
  405fa0:	e8 87 ff ff ff       	callq  405f2c <_ZN11ACE_IPC_SAP10set_handleEi>
  405fa5:	c9                   	leaveq 
  405fa6:	c3                   	retq   
  405fa7:	90                   	nop    

0000000000405fa8 <_ZNK12ACE_SSL_SOCK10get_handleEv>:
  405fa8:	55                   	push   %rbp
  405fa9:	48 89 e5             	mov    %rsp,%rbp
  405fac:	48 83 ec 10          	sub    $0x10,%rsp
  405fb0:	48 89 7d f8          	mov    %rdi,0xfffffffffffffff8(%rbp)
  405fb4:	48 8b 7d f8          	mov    0xfffffffffffffff8(%rbp),%rdi
  405fb8:	e8 5f ff ff ff       	callq  405f1c <_ZNK11ACE_IPC_SAP10get_handleEv>
  405fbd:	c9                   	leaveq 
  405fbe:	c3                   	retq   
  405fbf:	90                   	nop    

0000000000405fc0 <_ZN16ACE_MEM_SAP_Node4dataEv>:
  405fc0:	55                   	push   %rbp
  405fc1:	48 89 e5             	mov    %rsp,%rbp
  405fc4:	48 89 7d f8          	mov    %rdi,0xfffffffffffffff8(%rbp)
  405fc8:	48 8b 45 f8          	mov    0xfffffffffffffff8(%rbp),%rax
  405fcc:	48 83 c0 20          	add    $0x20,%rax
  405fd0:	c9                   	leaveq 
  405fd1:	c3                   	retq   

0000000000405fd2 <_ZN18ACE_SOCK_ConnectorD2Ev>:
  405fd2:	55                   	push   %rbp
  405fd3:	48 89 e5             	mov    %rsp,%rbp
  405fd6:	48 89 7d f8          	mov    %rdi,0xfffffffffffffff8(%rbp)
  405fda:	c9                   	leaveq 
  405fdb:	c3                   	retq   

0000000000405fdc <_ZN18ACE_SOCK_ConnectorD1Ev>:
  405fdc:	55                   	push   %rbp
  405fdd:	48 89 e5             	mov    %rsp,%rbp
  405fe0:	48 89 7d f8          	mov    %rdi,0xfffffffffffffff8(%rbp)
  405fe4:	c9                   	leaveq 
  405fe5:	c3                   	retq   

0000000000405fe6 <_ZN18ACE_SOCK_ConnectorC1Ev>:
  405fe6:	55                   	push   %rbp
  405fe7:	48 89 e5             	mov    %rsp,%rbp
  405fea:	48 89 7d f8          	mov    %rdi,0xfffffffffffffff8(%rbp)
  405fee:	c9                   	leaveq 
  405fef:	c3                   	retq   

0000000000405ff0 <_ZN22ACE_SSL_SOCK_ConnectorC1Ev>:
  405ff0:	55                   	push   %rbp
  405ff1:	48 89 e5             	mov    %rsp,%rbp
  405ff4:	48 83 ec 10          	sub    $0x10,%rsp
  405ff8:	48 89 7d f8          	mov    %rdi,0xfffffffffffffff8(%rbp)
  405ffc:	48 8b 7d f8          	mov    0xfffffffffffffff8(%rbp),%rdi
  406000:	e8 e1 ff ff ff       	callq  405fe6 <_ZN18ACE_SOCK_ConnectorC1Ev>
  406005:	c9                   	leaveq 
  406006:	c3                   	retq   
  406007:	90                   	nop    

0000000000406008 <_ZNK12ACE_MEM_Addr15get_remote_addrEv>:
  406008:	55                   	push   %rbp
  406009:	48 89 e5             	mov    %rsp,%rbp
  40600c:	48 89 7d f8          	mov    %rdi,0xfffffffffffffff8(%rbp)
  406010:	48 8b 45 f8          	mov    0xfffffffffffffff8(%rbp),%rax
  406014:	48 83 c0 10          	add    $0x10,%rax
  406018:	c9                   	leaveq 
  406019:	c3                   	retq   

000000000040601a <_ZN17ACE_Based_PointerIN20ACE_PI_Control_Block17ACE_Malloc_HeaderEEaSEPS1_>:
  40601a:	55                   	push   %rbp
  40601b:	48 89 e5             	mov    %rsp,%rbp
  40601e:	53                   	push   %rbx
  40601f:	48 89 7d f0          	mov    %rdi,0xfffffffffffffff0(%rbp)
  406023:	48 89 75 e8          	mov    %rsi,0xffffffffffffffe8(%rbp)
  406027:	48 83 7d e8 00       	cmpq   $0x0,0xffffffffffffffe8(%rbp)
  40602c:	75 0d                	jne    40603b <_ZN17ACE_Based_PointerIN20ACE_PI_Control_Block17ACE_Malloc_HeaderEEaSEPS1_+0x21>
  40602e:	48 8b 45 f0          	mov    0xfffffffffffffff0(%rbp),%rax
  406032:	48 c7 00 ff ff ff ff 	movq   $0xffffffffffffffff,(%rax)
  406039:	eb 26                	jmp    406061 <_ZN17ACE_Based_PointerIN20ACE_PI_Control_Block17ACE_Malloc_HeaderEEaSEPS1_+0x47>
  40603b:	48 8b 4d e8          	mov    0xffffffffffffffe8(%rbp),%rcx
  40603f:	48 8b 55 f0          	mov    0xfffffffffffffff0(%rbp),%rdx
  406043:	48 8b 45 f0          	mov    0xfffffffffffffff0(%rbp),%rax
  406047:	48 8b 40 08          	mov    0x8(%rax),%rax
  40604b:	48 89 d3             	mov    %rdx,%rbx
  40604e:	48 29 c3             	sub    %rax,%rbx
  406051:	48 89 d8             	mov    %rbx,%rax
  406054:	48 89 ca             	mov    %rcx,%rdx
  406057:	48 29 c2             	sub    %rax,%rdx
  40605a:	48 8b 45 f0          	mov    0xfffffffffffffff0(%rbp),%rax
  40605e:	48 89 10             	mov    %rdx,(%rax)
  406061:	5b                   	pop    %rbx
  406062:	c9                   	leaveq 
  406063:	c3                   	retq   

0000000000406064 <_ZN23ACE_Based_Pointer_BasicIN20ACE_PI_Control_Block17ACE_Malloc_HeaderEEC2EPKvi>:
  406064:	55                   	push   %rbp
  406065:	48 89 e5             	mov    %rsp,%rbp
  406068:	48 89 7d f8          	mov    %rdi,0xfffffffffffffff8(%rbp)
  40606c:	48 89 75 f0          	mov    %rsi,0xfffffffffffffff0(%rbp)
  406070:	89 55 ec             	mov    %edx,0xffffffffffffffec(%rbp)
  406073:	48 8b 45 f8          	mov    0xfffffffffffffff8(%rbp),%rax
  406077:	48 c7 00 00 00 00 00 	movq   $0x0,(%rax)
  40607e:	48 8b 45 f8          	mov    0xfffffffffffffff8(%rbp),%rax
  406082:	48 c7 40 08 00 00 00 	movq   $0x0,0x8(%rax)
  406089:	00 
  40608a:	48 8b 55 f8          	mov    0xfffffffffffffff8(%rbp),%rdx
  40608e:	48 8b 45 f0          	mov    0xfffffffffffffff0(%rbp),%rax
  406092:	48 29 c2             	sub    %rax,%rdx
  406095:	48 8b 45 f8          	mov    0xfffffffffffffff8(%rbp),%rax
  406099:	48 89 50 08          	mov    %rdx,0x8(%rax)
  40609d:	c9                   	leaveq 
  40609e:	c3                   	retq   
  40609f:	90                   	nop    

00000000004060a0 <_ZN17ACE_Based_PointerIN20ACE_PI_Control_Block17ACE_Malloc_HeaderEEC1EPKvi>:
  4060a0:	55                   	push   %rbp
  4060a1:	48 89 e5             	mov    %rsp,%rbp
  4060a4:	48 83 ec 20          	sub    $0x20,%rsp
  4060a8:	48 89 7d f8          	mov    %rdi,0xfffffffffffffff8(%rbp)
  4060ac:	48 89 75 f0          	mov    %rsi,0xfffffffffffffff0(%rbp)
  4060b0:	89 55 ec             	mov    %edx,0xffffffffffffffec(%rbp)
  4060b3:	48 8b 7d f8          	mov    0xfffffffffffffff8(%rbp),%rdi
  4060b7:	48 8b 75 f0          	mov    0xfffffffffffffff0(%rbp),%rsi
  4060bb:	ba 00 00 00 00       	mov    $0x0,%edx
  4060c0:	e8 9f ff ff ff       	callq  406064 <_ZN23ACE_Based_Pointer_BasicIN20ACE_PI_Control_Block17ACE_Malloc_HeaderEEC2EPKvi>
  4060c5:	c9                   	leaveq 
  4060c6:	c3                   	retq   
  4060c7:	90                   	nop    

00000000004060c8 <_ZN20ACE_PI_Control_Block17ACE_Malloc_Header8init_ptrEP17ACE_Based_PointerIS0_EPS0_Pv>:
  4060c8:	55                   	push   %rbp
  4060c9:	48 89 e5             	mov    %rsp,%rbp
  4060cc:	48 83 ec 20          	sub    $0x20,%rsp
  4060d0:	48 89 7d f8          	mov    %rdi,0xfffffffffffffff8(%rbp)
  4060d4:	48 89 75 f0          	mov    %rsi,0xfffffffffffffff0(%rbp)
  4060d8:	48 89 55 e8          	mov    %rdx,0xffffffffffffffe8(%rbp)
  4060dc:	48 8b 75 f8          	mov    0xfffffffffffffff8(%rbp),%rsi
  4060e0:	bf 10 00 00 00       	mov    $0x10,%edi
  4060e5:	e8 08 fe ff ff       	callq  405ef2 <_ZnwmPv>
  4060ea:	48 89 45 e0          	mov    %rax,0xffffffffffffffe0(%rbp)
  4060ee:	48 83 7d e0 00       	cmpq   $0x0,0xffffffffffffffe0(%rbp)
  4060f3:	74 12                	je     406107 <_ZN20ACE_PI_Control_Block17ACE_Malloc_Header8init_ptrEP17ACE_Based_PointerIS0_EPS0_Pv+0x3f>
  4060f5:	48 8b 75 e8          	mov    0xffffffffffffffe8(%rbp),%rsi
  4060f9:	ba 00 00 00 00       	mov    $0x0,%edx
  4060fe:	48 8b 7d e0          	mov    0xffffffffffffffe0(%rbp),%rdi
  406102:	e8 99 ff ff ff       	callq  4060a0 <_ZN17ACE_Based_PointerIN20ACE_PI_Control_Block17ACE_Malloc_HeaderEEC1EPKvi>
  406107:	48 8b 75 f0          	mov    0xfffffffffffffff0(%rbp),%rsi
  40610b:	48 8b 7d f8          	mov    0xfffffffffffffff8(%rbp),%rdi
  40610f:	e8 06 ff ff ff       	callq  40601a <_ZN17ACE_Based_PointerIN20ACE_PI_Control_Block17ACE_Malloc_HeaderEEaSEPS1_>
  406114:	c9                   	leaveq 
  406115:	c3                   	retq   

0000000000406116 <_ZNK9ACE_GuardI17ACE_Process_MutexE6lockedEv>:
  406116:	55                   	push   %rbp
  406117:	48 89 e5             	mov    %rsp,%rbp
  40611a:	48 89 7d f8          	mov    %rdi,0xfffffffffffffff8(%rbp)
  40611e:	48 8b 45 f8          	mov    0xfffffffffffffff8(%rbp),%rax
  406122:	8b 40 08             	mov    0x8(%rax),%eax
  406125:	83 f8 ff             	cmp    $0xffffffffffffffff,%eax
  406128:	0f 95 c0             	setne  %al
  40612b:	0f b6 c0             	movzbl %al,%eax
  40612e:	c9                   	leaveq 
  40612f:	c3                   	retq   

0000000000406130 <_ZN17ACE_Based_PointerIN20ACE_PI_Control_Block17ACE_Malloc_HeaderEEptEv>:
  406130:	55                   	push   %rbp
  406131:	48 89 e5             	mov    %rsp,%rbp
  406134:	48 89 7d f8          	mov    %rdi,0xfffffffffffffff8(%rbp)
  406138:	48 8b 55 f8          	mov    0xfffffffffffffff8(%rbp),%rdx
  40613c:	48 8b 45 f8          	mov    0xfffffffffffffff8(%rbp),%rax
  406140:	48 8b 40 08          	mov    0x8(%rax),%rax
  406144:	48 29 c2             	sub    %rax,%rdx
  406147:	48 8b 45 f8          	mov    0xfffffffffffffff8(%rbp),%rax
  40614b:	48 8b 00             	mov    (%rax),%rax
  40614e:	48 8d 04 02          	lea    (%rdx,%rax,1),%rax
  406152:	c9                   	leaveq 
  406153:	c3                   	retq   

0000000000406154 <_ZNK23ACE_Based_Pointer_BasicIN20ACE_PI_Control_Block17ACE_Malloc_HeaderEE4addrEv>:
  406154:	55                   	push   %rbp
  406155:	48 89 e5             	mov    %rsp,%rbp
  406158:	48 89 7d f8          	mov    %rdi,0xfffffffffffffff8(%rbp)
  40615c:	48 8b 45 f8          	mov    0xfffffffffffffff8(%rbp),%rax
  406160:	48 8b 00             	mov    (%rax),%rax
  406163:	48 83 f8 ff          	cmp    $0xffffffffffffffff,%rax
  406167:	75 0a                	jne    406173 <_ZNK23ACE_Based_Pointer_BasicIN20ACE_PI_Control_Block17ACE_Malloc_HeaderEE4addrEv+0x1f>
  406169:	48 c7 45 f0 00 00 00 	movq   $0x0,0xfffffffffffffff0(%rbp)
  406170:	00 
  406171:	eb 1e                	jmp    406191 <_ZNK23ACE_Based_Pointer_BasicIN20ACE_PI_Control_Block17ACE_Malloc_HeaderEE4addrEv+0x3d>
  406173:	48 8b 55 f8          	mov    0xfffffffffffffff8(%rbp),%rdx
  406177:	48 8b 45 f8          	mov    0xfffffffffffffff8(%rbp),%rax
  40617b:	48 8b 40 08          	mov    0x8(%rax),%rax
  40617f:	48 29 c2             	sub    %rax,%rdx
  406182:	48 8b 45 f8          	mov    0xfffffffffffffff8(%rbp),%rax
  406186:	48 8b 00             	mov    (%rax),%rax
  406189:	48 8d 04 02          	lea    (%rdx,%rax,1),%rax
  40618d:	48 89 45 f0          	mov    %rax,0xfffffffffffffff0(%rbp)
  406191:	48 8b 45 f0          	mov    0xfffffffffffffff0(%rbp),%rax
  406195:	c9                   	leaveq 
  406196:	c3                   	retq   
  406197:	90                   	nop    

0000000000406198 <_ZNK23ACE_Based_Pointer_BasicIN20ACE_PI_Control_Block17ACE_Malloc_HeaderEEcvPS1_Ev>:
  406198:	55                   	push   %rbp
  406199:	48 89 e5             	mov    %rsp,%rbp
  40619c:	48 83 ec 10          	sub    $0x10,%rsp
  4061a0:	48 89 7d f8          	mov    %rdi,0xfffffffffffffff8(%rbp)
  4061a4:	48 8b 7d f8          	mov    0xfffffffffffffff8(%rbp),%rdi
  4061a8:	e8 a7 ff ff ff       	callq  406154 <_ZNK23ACE_Based_Pointer_BasicIN20ACE_PI_Control_Block17ACE_Malloc_HeaderEE4addrEv>
  4061ad:	c9                   	leaveq 
  4061ae:	c3                   	retq   
  4061af:	90                   	nop    

00000000004061b0 <_ZN17ACE_Based_PointerIN20ACE_PI_Control_Block17ACE_Malloc_HeaderEEaSERKS2_>:
  4061b0:	55                   	push   %rbp
  4061b1:	48 89 e5             	mov    %rsp,%rbp
  4061b4:	48 83 ec 10          	sub    $0x10,%rsp
  4061b8:	48 89 7d f8          	mov    %rdi,0xfffffffffffffff8(%rbp)
  4061bc:	48 89 75 f0          	mov    %rsi,0xfffffffffffffff0(%rbp)
  4061c0:	48 8b 7d f0          	mov    0xfffffffffffffff0(%rbp),%rdi
  4061c4:	e8 8b ff ff ff       	callq  406154 <_ZNK23ACE_Based_Pointer_BasicIN20ACE_PI_Control_Block17ACE_Malloc_HeaderEE4addrEv>
  4061c9:	48 89 c6             	mov    %rax,%rsi
  4061cc:	48 8b 7d f8          	mov    0xfffffffffffffff8(%rbp),%rdi
  4061d0:	e8 45 fe ff ff       	callq  40601a <_ZN17ACE_Based_PointerIN20ACE_PI_Control_Block17ACE_Malloc_HeaderEEaSEPS1_>
  4061d5:	c9                   	leaveq 
  4061d6:	c3                   	retq   
  4061d7:	90                   	nop    

00000000004061d8 <_ZN12ACE_Malloc_TI20ACE_MMAP_Memory_Pool17ACE_Process_Mutex20ACE_PI_Control_BlockE11shared_freeEPv>:
  4061d8:	55                   	push   %rbp
  4061d9:	48 89 e5             	mov    %rsp,%rbp
  4061dc:	53                   	push   %rbx
  4061dd:	48 83 ec 28          	sub    $0x28,%rsp
  4061e1:	48 89 7d e0          	mov    %rdi,0xffffffffffffffe0(%rbp)
  4061e5:	48 89 75 d8          	mov    %rsi,0xffffffffffffffd8(%rbp)
  4061e9:	48 83 7d d8 00       	cmpq   $0x0,0xffffffffffffffd8(%rbp)
  4061ee:	0f 84 71 01 00 00    	je     406365 <_ZN12ACE_Malloc_TI20ACE_MMAP_Memory_Pool17ACE_Process_Mutex20ACE_PI_Control_BlockE11shared_freeEPv+0x18d>
  4061f4:	48 8b 45 e0          	mov    0xffffffffffffffe0(%rbp),%rax
  4061f8:	48 8b 00             	mov    (%rax),%rax
  4061fb:	48 85 c0             	test   %rax,%rax
  4061fe:	75 05                	jne    406205 <_ZN12ACE_Malloc_TI20ACE_MMAP_Memory_Pool17ACE_Process_Mutex20ACE_PI_Control_BlockE11shared_freeEPv+0x2d>
  406200:	e9 60 01 00 00       	jmpq   406365 <_ZN12ACE_Malloc_TI20ACE_MMAP_Memory_Pool17ACE_Process_Mutex20ACE_PI_Control_BlockE11shared_freeEPv+0x18d>
  406205:	48 8b 45 d8          	mov    0xffffffffffffffd8(%rbp),%rax
  406209:	48 83 e8 20          	sub    $0x20,%rax
  40620d:	48 89 45 e8          	mov    %rax,0xffffffffffffffe8(%rbp)
  406211:	48 8b 45 e0          	mov    0xffffffffffffffe0(%rbp),%rax
  406215:	48 8b 00             	mov    (%rax),%rax
  406218:	48 8d 78 18          	lea    0x18(%rax),%rdi
  40621c:	e8 77 ff ff ff       	callq  406198 <_ZNK23ACE_Based_Pointer_BasicIN20ACE_PI_Control_Block17ACE_Malloc_HeaderEEcvPS1_Ev>
  406221:	48 89 45 f0          	mov    %rax,0xfffffffffffffff0(%rbp)
  406225:	eb 47                	jmp    40626e <_ZN12ACE_Malloc_TI20ACE_MMAP_Memory_Pool17ACE_Process_Mutex20ACE_PI_Control_BlockE11shared_freeEPv+0x96>
  406227:	48 8b 7d f0          	mov    0xfffffffffffffff0(%rbp),%rdi
  40622b:	e8 68 ff ff ff       	callq  406198 <_ZNK23ACE_Based_Pointer_BasicIN20ACE_PI_Control_Block17ACE_Malloc_HeaderEEcvPS1_Ev>
  406230:	48 3b 45 f0          	cmp    0xfffffffffffffff0(%rbp),%rax
  406234:	77 1f                	ja     406255 <_ZN12ACE_Malloc_TI20ACE_MMAP_Memory_Pool17ACE_Process_Mutex20ACE_PI_Control_BlockE11shared_freeEPv+0x7d>
  406236:	48 8b 45 e8          	mov    0xffffffffffffffe8(%rbp),%rax
  40623a:	48 3b 45 f0          	cmp    0xfffffffffffffff0(%rbp),%rax
  40623e:	77 0f                	ja     40624f <_ZN12ACE_Malloc_TI20ACE_MMAP_Memory_Pool17ACE_Process_Mutex20ACE_PI_Control_BlockE11shared_freeEPv+0x77>
  406240:	48 8b 7d f0          	mov    0xfffffffffffffff0(%rbp),%rdi
  406244:	e8 4f ff ff ff       	callq  406198 <_ZNK23ACE_Based_Pointer_BasicIN20ACE_PI_Control_Block17ACE_Malloc_HeaderEEcvPS1_Ev>
  406249:	48 3b 45 e8          	cmp    0xffffffffffffffe8(%rbp),%rax
  40624d:	76 06                	jbe    406255 <_ZN12ACE_Malloc_TI20ACE_MMAP_Memory_Pool17ACE_Process_Mutex20ACE_PI_Control_BlockE11shared_freeEPv+0x7d>
  40624f:	c6 45 d7 01          	movb   $0x1,0xffffffffffffffd7(%rbp)
  406253:	eb 04                	jmp    406259 <_ZN12ACE_Malloc_TI20ACE_MMAP_Memory_Pool17ACE_Process_Mutex20ACE_PI_Control_BlockE11shared_freeEPv+0x81>
  406255:	c6 45 d7 00          	movb   $0x0,0xffffffffffffffd7(%rbp)
  406259:	0f b6 45 d7          	movzbl 0xffffffffffffffd7(%rbp),%eax
  40625d:	84 c0                	test   %al,%al
  40625f:	75 38                	jne    406299 <_ZN12ACE_Malloc_TI20ACE_MMAP_Memory_Pool17ACE_Process_Mutex20ACE_PI_Control_BlockE11shared_freeEPv+0xc1>
  406261:	48 8b 7d f0          	mov    0xfffffffffffffff0(%rbp),%rdi
  406265:	e8 2e ff ff ff       	callq  406198 <_ZNK23ACE_Based_Pointer_BasicIN20ACE_PI_Control_Block17ACE_Malloc_HeaderEEcvPS1_Ev>
  40626a:	48 89 45 f0          	mov    %rax,0xfffffffffffffff0(%rbp)
  40626e:	48 8b 45 e8          	mov    0xffffffffffffffe8(%rbp),%rax
  406272:	48 3b 45 f0          	cmp    0xfffffffffffffff0(%rbp),%rax
  406276:	76 0f                	jbe    406287 <_ZN12ACE_Malloc_TI20ACE_MMAP_Memory_Pool17ACE_Process_Mutex20ACE_PI_Control_BlockE11shared_freeEPv+0xaf>
  406278:	48 8b 7d f0          	mov    0xfffffffffffffff0(%rbp),%rdi
  40627c:	e8 17 ff ff ff       	callq  406198 <_ZNK23ACE_Based_Pointer_BasicIN20ACE_PI_Control_Block17ACE_Malloc_HeaderEEcvPS1_Ev>
  406281:	48 3b 45 e8          	cmp    0xffffffffffffffe8(%rbp),%rax
  406285:	77 06                	ja     40628d <_ZN12ACE_Malloc_TI20ACE_MMAP_Memory_Pool17ACE_Process_Mutex20ACE_PI_Control_BlockE11shared_freeEPv+0xb5>
  406287:	c6 45 d6 01          	movb   $0x1,0xffffffffffffffd6(%rbp)
  40628b:	eb 04                	jmp    406291 <_ZN12ACE_Malloc_TI20ACE_MMAP_Memory_Pool17ACE_Process_Mutex20ACE_PI_Control_BlockE11shared_freeEPv+0xb9>
  40628d:	c6 45 d6 00          	movb   $0x0,0xffffffffffffffd6(%rbp)
  406291:	0f b6 45 d6          	movzbl 0xffffffffffffffd6(%rbp),%eax
  406295:	84 c0                	test   %al,%al
  406297:	75 8e                	jne    406227 <_ZN12ACE_Malloc_TI20ACE_MMAP_Memory_Pool17ACE_Process_Mutex20ACE_PI_Control_BlockE11shared_freeEPv+0x4f>
  406299:	48 8b 45 e8          	mov    0xffffffffffffffe8(%rbp),%rax
  40629d:	48 8b 40 10          	mov    0x10(%rax),%rax
  4062a1:	48 c1 e0 05          	shl    $0x5,%rax
  4062a5:	48 89 c3             	mov    %rax,%rbx
  4062a8:	48 03 5d e8          	add    0xffffffffffffffe8(%rbp),%rbx
  4062ac:	48 8b 7d f0          	mov    0xfffffffffffffff0(%rbp),%rdi
  4062b0:	e8 e3 fe ff ff       	callq  406198 <_ZNK23ACE_Based_Pointer_BasicIN20ACE_PI_Control_Block17ACE_Malloc_HeaderEEcvPS1_Ev>
  4062b5:	48 39 c3             	cmp    %rax,%rbx
  4062b8:	0f 94 c0             	sete   %al
  4062bb:	84 c0                	test   %al,%al
  4062bd:	74 38                	je     4062f7 <_ZN12ACE_Malloc_TI20ACE_MMAP_Memory_Pool17ACE_Process_Mutex20ACE_PI_Control_BlockE11shared_freeEPv+0x11f>
  4062bf:	48 8b 45 e8          	mov    0xffffffffffffffe8(%rbp),%rax
  4062c3:	48 8b 58 10          	mov    0x10(%rax),%rbx
  4062c7:	48 8b 7d f0          	mov    0xfffffffffffffff0(%rbp),%rdi
  4062cb:	e8 60 fe ff ff       	callq  406130 <_ZN17ACE_Based_PointerIN20ACE_PI_Control_Block17ACE_Malloc_HeaderEEptEv>
  4062d0:	48 8b 40 10          	mov    0x10(%rax),%rax
  4062d4:	48 8d 14 03          	lea    (%rbx,%rax,1),%rdx
  4062d8:	48 8b 45 e8          	mov    0xffffffffffffffe8(%rbp),%rax
  4062dc:	48 89 50 10          	mov    %rdx,0x10(%rax)
  4062e0:	48 8b 7d f0          	mov    0xfffffffffffffff0(%rbp),%rdi
  4062e4:	e8 47 fe ff ff       	callq  406130 <_ZN17ACE_Based_PointerIN20ACE_PI_Control_Block17ACE_Malloc_HeaderEEptEv>
  4062e9:	48 89 c6             	mov    %rax,%rsi
  4062ec:	48 8b 7d e8          	mov    0xffffffffffffffe8(%rbp),%rdi
  4062f0:	e8 bb fe ff ff       	callq  4061b0 <_ZN17ACE_Based_PointerIN20ACE_PI_Control_Block17ACE_Malloc_HeaderEEaSERKS2_>
  4062f5:	eb 0d                	jmp    406304 <_ZN12ACE_Malloc_TI20ACE_MMAP_Memory_Pool17ACE_Process_Mutex20ACE_PI_Control_BlockE11shared_freeEPv+0x12c>
  4062f7:	48 8b 75 f0          	mov    0xfffffffffffffff0(%rbp),%rsi
  4062fb:	48 8b 7d e8          	mov    0xffffffffffffffe8(%rbp),%rdi
  4062ff:	e8 ac fe ff ff       	callq  4061b0 <_ZN17ACE_Based_PointerIN20ACE_PI_Control_Block17ACE_Malloc_HeaderEEaSERKS2_>
  406304:	48 8b 45 f0          	mov    0xfffffffffffffff0(%rbp),%rax
  406308:	48 8b 40 10          	mov    0x10(%rax),%rax
  40630c:	48 c1 e0 05          	shl    $0x5,%rax
  406310:	48 03 45 f0          	add    0xfffffffffffffff0(%rbp),%rax
  406314:	48 3b 45 e8          	cmp    0xffffffffffffffe8(%rbp),%rax
  406318:	75 2a                	jne    406344 <_ZN12ACE_Malloc_TI20ACE_MMAP_Memory_Pool17ACE_Process_Mutex20ACE_PI_Control_BlockE11shared_freeEPv+0x16c>
  40631a:	48 8b 45 f0          	mov    0xfffffffffffffff0(%rbp),%rax
  40631e:	48 8b 50 10          	mov    0x10(%rax),%rdx
  406322:	48 8b 45 e8          	mov    0xffffffffffffffe8(%rbp),%rax
  406326:	48 8b 40 10          	mov    0x10(%rax),%rax
  40632a:	48 01 c2             	add    %rax,%rdx
  40632d:	48 8b 45 f0          	mov    0xfffffffffffffff0(%rbp),%rax
  406331:	48 89 50 10          	mov    %rdx,0x10(%rax)
  406335:	48 8b 75 e8          	mov    0xffffffffffffffe8(%rbp),%rsi
  406339:	48 8b 7d f0          	mov    0xfffffffffffffff0(%rbp),%rdi
  40633d:	e8 6e fe ff ff       	callq  4061b0 <_ZN17ACE_Based_PointerIN20ACE_PI_Control_Block17ACE_Malloc_HeaderEEaSERKS2_>
  406342:	eb 0d                	jmp    406351 <_ZN12ACE_Malloc_TI20ACE_MMAP_Memory_Pool17ACE_Process_Mutex20ACE_PI_Control_BlockE11shared_freeEPv+0x179>
  406344:	48 8b 7d f0          	mov    0xfffffffffffffff0(%rbp),%rdi
  406348:	48 8b 75 e8          	mov    0xffffffffffffffe8(%rbp),%rsi
  40634c:	e8 c9 fc ff ff       	callq  40601a <_ZN17ACE_Based_PointerIN20ACE_PI_Control_Block17ACE_Malloc_HeaderEEaSEPS1_>
  406351:	48 8b 45 e0          	mov    0xffffffffffffffe0(%rbp),%rax
  406355:	48 8b 00             	mov    (%rax),%rax
  406358:	48 8d 78 18          	lea    0x18(%rax),%rdi
  40635c:	48 8b 75 f0          	mov    0xfffffffffffffff0(%rbp),%rsi
  406360:	e8 b5 fc ff ff       	callq  40601a <_ZN17ACE_Based_PointerIN20ACE_PI_Control_Block17ACE_Malloc_HeaderEEaSEPS1_>
  406365:	48 83 c4 28          	add    $0x28,%rsp
  406369:	5b                   	pop    %rbx
  40636a:	c9                   	leaveq 
  40636b:	c3                   	retq   

000000000040636c <_ZN10ACE_MEM_IOD2Ev>:
  40636c:	55                   	push   %rbp
  40636d:	48 89 e5             	mov    %rsp,%rbp
  406370:	53                   	push   %rbx
  406371:	48 83 ec 18          	sub    $0x18,%rsp
  406375:	48 89 7d f0          	mov    %rdi,0xfffffffffffffff0(%rbp)
  406379:	48 8b 45 f0          	mov    0xfffffffffffffff0(%rbp),%rax
  40637d:	48 8b 40 08          	mov    0x8(%rax),%rax
  406381:	48 85 c0             	test   %rax,%rax
  406384:	74 1c                	je     4063a2 <_ZN10ACE_MEM_IOD2Ev+0x36>
  406386:	48 8b 45 f0          	mov    0xfffffffffffffff0(%rbp),%rax
  40638a:	48 8b 40 08          	mov    0x8(%rax),%rax
  40638e:	48 8b 00             	mov    (%rax),%rax
  406391:	48 83 c0 08          	add    $0x8,%rax
  406395:	48 8b 10             	mov    (%rax),%rdx
  406398:	48 8b 45 f0          	mov    0xfffffffffffffff0(%rbp),%rax
  40639c:	48 8b 78 08          	mov    0x8(%rax),%rdi
  4063a0:	ff d2                	callq  *%rdx
  4063a2:	48 8b 45 f0          	mov    0xfffffffffffffff0(%rbp),%rax
  4063a6:	48 89 45 e8          	mov    %rax,0xffffffffffffffe8(%rbp)
  4063aa:	48 8b 7d e8          	mov    0xffffffffffffffe8(%rbp),%rdi
  4063ae:	e8 8f fb ff ff       	callq  405f42 <_ZN8ACE_SOCKD2Ev>
  4063b3:	eb 26                	jmp    4063db <_ZN10ACE_MEM_IOD2Ev+0x6f>
  4063b5:	48 89 45 e0          	mov    %rax,0xffffffffffffffe0(%rbp)
  4063b9:	48 8b 5d e0          	mov    0xffffffffffffffe0(%rbp),%rbx
  4063bd:	48 8b 45 f0          	mov    0xfffffffffffffff0(%rbp),%rax
  4063c1:	48 89 45 e8          	mov    %rax,0xffffffffffffffe8(%rbp)
  4063c5:	48 8b 7d e8          	mov    0xffffffffffffffe8(%rbp),%rdi
  4063c9:	e8 74 fb ff ff       	callq  405f42 <_ZN8ACE_SOCKD2Ev>
  4063ce:	48 89 5d e0          	mov    %rbx,0xffffffffffffffe0(%rbp)
  4063d2:	48 8b 7d e0          	mov    0xffffffffffffffe0(%rbp),%rdi
  4063d6:	e8 2d df ff ff       	callq  404308 <_Unwind_Resume@plt>
  4063db:	48 83 c4 18          	add    $0x18,%rsp
  4063df:	5b                   	pop    %rbx
  4063e0:	c9                   	leaveq 
  4063e1:	c3                   	retq   

00000000004063e2 <_ZN14ACE_MEM_StreamD1Ev>:
  4063e2:	55                   	push   %rbp
  4063e3:	48 89 e5             	mov    %rsp,%rbp
  4063e6:	48 83 ec 10          	sub    $0x10,%rsp
  4063ea:	48 89 7d f8          	mov    %rdi,0xfffffffffffffff8(%rbp)
  4063ee:	48 8b 7d f8          	mov    0xfffffffffffffff8(%rbp),%rdi
  4063f2:	e8 75 ff ff ff       	callq  40636c <_ZN10ACE_MEM_IOD2Ev>
  4063f7:	c9                   	leaveq 
  4063f8:	c3                   	retq   
  4063f9:	90                   	nop    

00000000004063fa <_ZN17ACE_MEM_ConnectorD1Ev>:
  4063fa:	55                   	push   %rbp
  4063fb:	48 89 e5             	mov    %rsp,%rbp
  4063fe:	53                   	push   %rbx
  4063ff:	48 83 ec 18          	sub    $0x18,%rsp
  406403:	48 89 7d f0          	mov    %rdi,0xfffffffffffffff0(%rbp)
  406407:	48 8b 7d f0          	mov    0xfffffffffffffff0(%rbp),%rdi
  40640b:	e8 58 d7 ff ff       	callq  403b68 <_ZN12ACE_MEM_AddrD1Ev@plt>
  406410:	48 8b 45 f0          	mov    0xfffffffffffffff0(%rbp),%rax
  406414:	48 89 45 e8          	mov    %rax,0xffffffffffffffe8(%rbp)
  406418:	48 8b 7d e8          	mov    0xffffffffffffffe8(%rbp),%rdi
  40641c:	e8 b1 fb ff ff       	callq  405fd2 <_ZN18ACE_SOCK_ConnectorD2Ev>
  406421:	eb 26                	jmp    406449 <_ZN17ACE_MEM_ConnectorD1Ev+0x4f>
  406423:	48 89 45 e0          	mov    %rax,0xffffffffffffffe0(%rbp)
  406427:	48 8b 5d e0          	mov    0xffffffffffffffe0(%rbp),%rbx
  40642b:	48 8b 45 f0          	mov    0xfffffffffffffff0(%rbp),%rax
  40642f:	48 89 45 e8          	mov    %rax,0xffffffffffffffe8(%rbp)
  406433:	48 8b 7d e8          	mov    0xffffffffffffffe8(%rbp),%rdi
  406437:	e8 96 fb ff ff       	callq  405fd2 <_ZN18ACE_SOCK_ConnectorD2Ev>
  40643c:	48 89 5d e0          	mov    %rbx,0xffffffffffffffe0(%rbp)
  406440:	48 8b 7d e0          	mov    0xffffffffffffffe0(%rbp),%rdi
  406444:	e8 bf de ff ff       	callq  404308 <_Unwind_Resume@plt>
  406449:	48 83 c4 18          	add    $0x18,%rsp
  40644d:	5b                   	pop    %rbx
  40644e:	c9                   	leaveq 
  40644f:	c3                   	retq   

0000000000406450 <_ZNK11ACE_SOCK_IO4recvEPvmPK14ACE_Time_Value>:
  406450:	55                   	push   %rbp
  406451:	48 89 e5             	mov    %rsp,%rbp
  406454:	48 83 ec 20          	sub    $0x20,%rsp
  406458:	48 89 7d f8          	mov    %rdi,0xfffffffffffffff8(%rbp)
  40645c:	48 89 75 f0          	mov    %rsi,0xfffffffffffffff0(%rbp)
  406460:	48 89 55 e8          	mov    %rdx,0xffffffffffffffe8(%rbp)
  406464:	48 89 4d e0          	mov    %rcx,0xffffffffffffffe0(%rbp)
  406468:	48 8b 7d f8          	mov    0xfffffffffffffff8(%rbp),%rdi
  40646c:	e8 ab fa ff ff       	callq  405f1c <_ZNK11ACE_IPC_SAP10get_handleEv>
  406471:	89 c7                	mov    %eax,%edi
  406473:	48 8b 4d e0          	mov    0xffffffffffffffe0(%rbp),%rcx
  406477:	48 8b 55 e8          	mov    0xffffffffffffffe8(%rbp),%rdx
  40647b:	48 8b 75 f0          	mov    0xfffffffffffffff0(%rbp),%rsi
  40647f:	e8 d4 d8 ff ff       	callq  403d58 <_ZN3ACE4recvEiPvmPK14ACE_Time_Value@plt>
  406484:	c9                   	leaveq 
  406485:	c3                   	retq   

0000000000406486 <_ZNK19ACE_SSL_SOCK_Stream4recvEPvmPK14ACE_Time_Value>:
  406486:	55                   	push   %rbp
  406487:	48 89 e5             	mov    %rsp,%rbp
  40648a:	48 83 ec 20          	sub    $0x20,%rsp
  40648e:	48 89 7d f8          	mov    %rdi,0xfffffffffffffff8(%rbp)
  406492:	48 89 75 f0          	mov    %rsi,0xfffffffffffffff0(%rbp)
  406496:	48 89 55 e8          	mov    %rdx,0xffffffffffffffe8(%rbp)
  40649a:	48 89 4d e0          	mov    %rcx,0xffffffffffffffe0(%rbp)
  40649e:	48 8b 45 e0          	mov    0xffffffffffffffe0(%rbp),%rax
  4064a2:	48 8b 55 e8          	mov    0xffffffffffffffe8(%rbp),%rdx
  4064a6:	48 8b 75 f0          	mov    0xfffffffffffffff0(%rbp),%rsi
  4064aa:	48 8b 7d f8          	mov    0xfffffffffffffff8(%rbp),%rdi
  4064ae:	49 89 c0             	mov    %rax,%r8
  4064b1:	b9 00 00 00 00       	mov    $0x0,%ecx
  4064b6:	e8 9d db ff ff       	callq  404058 <_ZNK19ACE_SSL_SOCK_Stream4recvEPvmiPK14ACE_Time_Value@plt>
  4064bb:	c9                   	leaveq 
  4064bc:	c3                   	retq   
  4064bd:	90                   	nop    

00000000004064be <_ZN6ACE_OS23set_errno_to_last_errorEv>:
  4064be:	55                   	push   %rbp
  4064bf:	48 89 e5             	mov    %rsp,%rbp
  4064c2:	e8 71 d6 ff ff       	callq  403b38 <__errno_location@plt>
  4064c7:	8b 00                	mov    (%rax),%eax
  4064c9:	c9                   	leaveq 
  4064ca:	c3                   	retq   
  4064cb:	90                   	nop    

00000000004064cc <_ZNK19ACE_SSL_SOCK_Stream6recv_iEPvmiPK14ACE_Time_Value>:
  4064cc:	55                   	push   %rbp
  4064cd:	48 89 e5             	mov    %rsp,%rbp
  4064d0:	48 83 ec 50          	sub    $0x50,%rsp
  4064d4:	48 89 7d e8          	mov    %rdi,0xffffffffffffffe8(%rbp)
  4064d8:	48 89 75 e0          	mov    %rsi,0xffffffffffffffe0(%rbp)
  4064dc:	48 89 55 d8          	mov    %rdx,0xffffffffffffffd8(%rbp)
  4064e0:	89 4d d4             	mov    %ecx,0xffffffffffffffd4(%rbp)
  4064e3:	4c 89 45 c8          	mov    %r8,0xffffffffffffffc8(%rbp)
  4064e7:	c7 45 f4 00 00 00 00 	movl   $0x0,0xfffffffffffffff4(%rbp)
  4064ee:	48 8b 7d e8          	mov    0xffffffffffffffe8(%rbp),%rdi
  4064f2:	e8 b1 fa ff ff       	callq  405fa8 <_ZNK12ACE_SSL_SOCK10get_handleEv>
  4064f7:	89 45 f8             	mov    %eax,0xfffffffffffffff8(%rbp)
  4064fa:	c7 45 f0 00 00 00 00 	movl   $0x0,0xfffffffffffffff0(%rbp)
  406501:	48 83 7d c8 00       	cmpq   $0x0,0xffffffffffffffc8(%rbp)
  406506:	74 0c                	je     406514 <_ZNK19ACE_SSL_SOCK_Stream6recv_iEPvmiPK14ACE_Time_Value+0x48>
  406508:	48 8d 75 f0          	lea    0xfffffffffffffff0(%rbp),%rsi
  40650c:	8b 7d f8             	mov    0xfffffffffffffff8(%rbp),%edi
  40650f:	e8 24 da ff ff       	callq  403f38 <_ZN3ACE32record_and_set_non_blocking_modeEiRi@plt>
  406514:	48 83 7d c8 00       	cmpq   $0x0,0xffffffffffffffc8(%rbp)
  406519:	74 17                	je     406532 <_ZNK19ACE_SSL_SOCK_Stream6recv_iEPvmiPK14ACE_Time_Value+0x66>
  40651b:	48 8b 45 e8          	mov    0xffffffffffffffe8(%rbp),%rax
  40651f:	48 8b 78 08          	mov    0x8(%rax),%rdi
  406523:	e8 f0 da ff ff       	callq  404018 <SSL_pending@plt>
  406528:	85 c0                	test   %eax,%eax
  40652a:	75 06                	jne    406532 <_ZNK19ACE_SSL_SOCK_Stream6recv_iEPvmiPK14ACE_Time_Value+0x66>
  40652c:	c6 45 bf 01          	movb   $0x1,0xffffffffffffffbf(%rbp)
  406530:	eb 04                	jmp    406536 <_ZNK19ACE_SSL_SOCK_Stream6recv_iEPvmiPK14ACE_Time_Value+0x6a>
  406532:	c6 45 bf 00          	movb   $0x0,0xffffffffffffffbf(%rbp)
  406536:	0f b6 45 bf          	movzbl 0xffffffffffffffbf(%rbp),%eax
  40653a:	84 c0                	test   %al,%al
  40653c:	74 27                	je     406565 <_ZNK19ACE_SSL_SOCK_Stream6recv_iEPvmiPK14ACE_Time_Value+0x99>
  40653e:	48 8d 55 f0          	lea    0xfffffffffffffff0(%rbp),%rdx
  406542:	48 8b 75 c8          	mov    0xffffffffffffffc8(%rbp),%rsi
  406546:	8b 7d f8             	mov    0xfffffffffffffff8(%rbp),%edi
  406549:	e8 6a dc ff ff       	callq  4041b8 <_ZN3ACE20enter_recv_timedwaitEiPK14ACE_Time_ValueRi@plt>
  40654e:	83 f8 ff             	cmp    $0xffffffffffffffff,%eax
  406551:	0f 94 c0             	sete   %al
  406554:	84 c0                	test   %al,%al
  406556:	74 0d                	je     406565 <_ZNK19ACE_SSL_SOCK_Stream6recv_iEPvmiPK14ACE_Time_Value+0x99>
  406558:	48 c7 45 c0 ff ff ff 	movq   $0xffffffffffffffff,0xffffffffffffffc0(%rbp)
  40655f:	ff 
  406560:	e9 2b 01 00 00       	jmpq   406690 <_ZNK19ACE_SSL_SOCK_Stream6recv_iEPvmiPK14ACE_Time_Value+0x1c4>
  406565:	83 7d d4 00          	cmpl   $0x0,0xffffffffffffffd4(%rbp)
  406569:	74 3e                	je     4065a9 <_ZNK19ACE_SSL_SOCK_Stream6recv_iEPvmiPK14ACE_Time_Value+0xdd>
  40656b:	8b 45 d4             	mov    0xffffffffffffffd4(%rbp),%eax
  40656e:	83 e0 02             	and    $0x2,%eax
  406571:	85 c0                	test   %eax,%eax
  406573:	74 1c                	je     406591 <_ZNK19ACE_SSL_SOCK_Stream6recv_iEPvmiPK14ACE_Time_Value+0xc5>
  406575:	48 8b 45 d8          	mov    0xffffffffffffffd8(%rbp),%rax
  406579:	89 c2                	mov    %eax,%edx
  40657b:	48 8b 75 e0          	mov    0xffffffffffffffe0(%rbp),%rsi
  40657f:	48 8b 45 e8          	mov    0xffffffffffffffe8(%rbp),%rax
  406583:	48 8b 78 08          	mov    0x8(%rax),%rdi
  406587:	e8 4c da ff ff       	callq  403fd8 <SSL_peek@plt>
  40658c:	89 45 f4             	mov    %eax,0xfffffffffffffff4(%rbp)
  40658f:	eb 32                	jmp    4065c3 <_ZNK19ACE_SSL_SOCK_Stream6recv_iEPvmiPK14ACE_Time_Value+0xf7>
  406591:	e8 a2 d5 ff ff       	callq  403b38 <__errno_location@plt>
  406596:	c7 00 5f 00 00 00    	movl   $0x5f,(%rax)
  40659c:	48 c7 45 c0 ff ff ff 	movq   $0xffffffffffffffff,0xffffffffffffffc0(%rbp)
  4065a3:	ff 
  4065a4:	e9 e7 00 00 00       	jmpq   406690 <_ZNK19ACE_SSL_SOCK_Stream6recv_iEPvmiPK14ACE_Time_Value+0x1c4>
  4065a9:	48 8b 45 d8          	mov    0xffffffffffffffd8(%rbp),%rax
  4065ad:	89 c2                	mov    %eax,%edx
  4065af:	48 8b 75 e0          	mov    0xffffffffffffffe0(%rbp),%rsi
  4065b3:	48 8b 45 e8          	mov    0xffffffffffffffe8(%rbp),%rax
  4065b7:	48 8b 78 08          	mov    0x8(%rax),%rdi
  4065bb:	e8 f8 d8 ff ff       	callq  403eb8 <SSL_read@plt>
  4065c0:	89 45 f4             	mov    %eax,0xfffffffffffffff4(%rbp)
  4065c3:	48 8b 45 e8          	mov    0xffffffffffffffe8(%rbp),%rax
  4065c7:	48 8b 78 08          	mov    0x8(%rax),%rdi
  4065cb:	8b 75 f4             	mov    0xfffffffffffffff4(%rbp),%esi
  4065ce:	e8 25 d6 ff ff       	callq  403bf8 <SSL_get_error@plt>
  4065d3:	89 45 fc             	mov    %eax,0xfffffffffffffffc(%rbp)
  4065d6:	83 7d fc 06          	cmpl   $0x6,0xfffffffffffffffc(%rbp)
  4065da:	0f 87 98 00 00 00    	ja     406678 <_ZNK19ACE_SSL_SOCK_Stream6recv_iEPvmiPK14ACE_Time_Value+0x1ac>
  4065e0:	8b 45 fc             	mov    0xfffffffffffffffc(%rbp),%eax
  4065e3:	48 8d 14 85 00 00 00 	lea    0x0(,%rax,4),%rdx
  4065ea:	00 
  4065eb:	48 8d 05 fe 06 02 00 	lea    132862(%rip),%rax        # 426cf0 <__dso_handle+0x8>
  4065f2:	8b 04 02             	mov    (%rdx,%rax,1),%eax
  4065f5:	48 63 d0             	movslq %eax,%rdx
  4065f8:	48 8d 05 f1 06 02 00 	lea    132849(%rip),%rax        # 426cf0 <__dso_handle+0x8>
  4065ff:	48 8d 04 02          	lea    (%rdx,%rax,1),%rax
  406603:	ff e0                	jmpq   *%rax
  406605:	48 83 7d c8 00       	cmpq   $0x0,0xffffffffffffffc8(%rbp)
  40660a:	74 0b                	je     406617 <_ZNK19ACE_SSL_SOCK_Stream6recv_iEPvmiPK14ACE_Time_Value+0x14b>
  40660c:	8b 75 f0             	mov    0xfffffffffffffff0(%rbp),%esi
  40660f:	8b 7d f8             	mov    0xfffffffffffffff8(%rbp),%edi
  406612:	e8 01 dc ff ff       	callq  404218 <_ZN3ACE25restore_non_blocking_modeEii@plt>
  406617:	8b 45 f4             	mov    0xfffffffffffffff4(%rbp),%eax
  40661a:	48 98                	cltq   
  40661c:	48 89 45 c0          	mov    %rax,0xffffffffffffffc0(%rbp)
  406620:	eb 6e                	jmp    406690 <_ZNK19ACE_SSL_SOCK_Stream6recv_iEPvmiPK14ACE_Time_Value+0x1c4>
  406622:	e8 11 d5 ff ff       	callq  403b38 <__errno_location@plt>
  406627:	c7 00 0b 00 00 00    	movl   $0xb,(%rax)
  40662d:	48 c7 45 c0 ff ff ff 	movq   $0xffffffffffffffff,0xffffffffffffffc0(%rbp)
  406634:	ff 
  406635:	eb 59                	jmp    406690 <_ZNK19ACE_SSL_SOCK_Stream6recv_iEPvmiPK14ACE_Time_Value+0x1c4>
  406637:	48 83 7d c8 00       	cmpq   $0x0,0xffffffffffffffc8(%rbp)
  40663c:	74 0b                	je     406649 <_ZNK19ACE_SSL_SOCK_Stream6recv_iEPvmiPK14ACE_Time_Value+0x17d>
  40663e:	8b 75 f0             	mov    0xfffffffffffffff0(%rbp),%esi
  406641:	8b 7d f8             	mov    0xfffffffffffffff8(%rbp),%edi
  406644:	e8 cf db ff ff       	callq  404218 <_ZN3ACE25restore_non_blocking_modeEii@plt>
  406649:	48 8b 45 e8          	mov    0xffffffffffffffe8(%rbp),%rax
  40664d:	48 8b 78 08          	mov    0x8(%rax),%rdi
  406651:	e8 52 da ff ff       	callq  4040a8 <SSL_shutdown@plt>
  406656:	8b 45 f4             	mov    0xfffffffffffffff4(%rbp),%eax
  406659:	48 98                	cltq   
  40665b:	48 89 45 c0          	mov    %rax,0xffffffffffffffc0(%rbp)
  40665f:	eb 2f                	jmp    406690 <_ZNK19ACE_SSL_SOCK_Stream6recv_iEPvmiPK14ACE_Time_Value+0x1c4>
  406661:	83 7d f4 00          	cmpl   $0x0,0xfffffffffffffff4(%rbp)
  406665:	75 0a                	jne    406671 <_ZNK19ACE_SSL_SOCK_Stream6recv_iEPvmiPK14ACE_Time_Value+0x1a5>
  406667:	48 c7 45 c0 00 00 00 	movq   $0x0,0xffffffffffffffc0(%rbp)
  40666e:	00 
  40666f:	eb 1f                	jmp    406690 <_ZNK19ACE_SSL_SOCK_Stream6recv_iEPvmiPK14ACE_Time_Value+0x1c4>
  406671:	e8 48 fe ff ff       	callq  4064be <_ZN6ACE_OS23set_errno_to_last_errorEv>
  406676:	eb 10                	jmp    406688 <_ZNK19ACE_SSL_SOCK_Stream6recv_iEPvmiPK14ACE_Time_Value+0x1bc>
  406678:	e8 bb d4 ff ff       	callq  403b38 <__errno_location@plt>
  40667d:	c7 00 00 00 00 00    	movl   $0x0,(%rax)
  406683:	e8 f0 db ff ff       	callq  404278 <_ZN15ACE_SSL_Context12report_errorEv@plt>
  406688:	48 c7 45 c0 ff ff ff 	movq   $0xffffffffffffffff,0xffffffffffffffc0(%rbp)
  40668f:	ff 
  406690:	48 8b 45 c0          	mov    0xffffffffffffffc0(%rbp),%rax
  406694:	c9                   	leaveq 
  406695:	c3                   	retq   

0000000000406696 <_ZNK19ACE_SSL_SOCK_Stream4recvEPvm>:
  406696:	55                   	push   %rbp
  406697:	48 89 e5             	mov    %rsp,%rbp
  40669a:	48 83 ec 20          	sub    $0x20,%rsp
  40669e:	48 89 7d f8          	mov    %rdi,0xfffffffffffffff8(%rbp)
  4066a2:	48 89 75 f0          	mov    %rsi,0xfffffffffffffff0(%rbp)
  4066a6:	48 89 55 e8          	mov    %rdx,0xffffffffffffffe8(%rbp)
  4066aa:	48 8b 55 e8          	mov    0xffffffffffffffe8(%rbp),%rdx
  4066ae:	48 8b 75 f0          	mov    0xfffffffffffffff0(%rbp),%rsi
  4066b2:	48 8b 7d f8          	mov    0xfffffffffffffff8(%rbp),%rdi
  4066b6:	41 b8 00 00 00 00    	mov    $0x0,%r8d
  4066bc:	b9 00 00 00 00       	mov    $0x0,%ecx
  4066c1:	e8 06 fe ff ff       	callq  4064cc <_ZNK19ACE_SSL_SOCK_Stream6recv_iEPvmiPK14ACE_Time_Value>
  4066c6:	c9                   	leaveq 
  4066c7:	c3                   	retq   

00000000004066c8 <_ZNK23ACE_SV_Semaphore_Simple7acquireEts>:
  4066c8:	55                   	push   %rbp
  4066c9:	48 89 e5             	mov    %rsp,%rbp
  4066cc:	48 83 ec 10          	sub    $0x10,%rsp
  4066d0:	48 89 7d f8          	mov    %rdi,0xfffffffffffffff8(%rbp)
  4066d4:	66 89 75 f4          	mov    %si,0xfffffffffffffff4(%rbp)
  4066d8:	66 89 55 f0          	mov    %dx,0xfffffffffffffff0(%rbp)
  4066dc:	0f bf 4d f0          	movswl 0xfffffffffffffff0(%rbp),%ecx
  4066e0:	0f b7 55 f4          	movzwl 0xfffffffffffffff4(%rbp),%edx
  4066e4:	48 8b 7d f8          	mov    0xfffffffffffffff8(%rbp),%rdi
  4066e8:	be ff ff ff ff       	mov    $0xffffffff,%esi
  4066ed:	e8 36 d7 ff ff       	callq  403e28 <_ZNK23ACE_SV_Semaphore_Simple2opEsts@plt>
  4066f2:	c9                   	leaveq 
  4066f3:	c3                   	retq   

00000000004066f4 <_ZNK24ACE_SV_Semaphore_Complex7acquireEts>:
  4066f4:	55                   	push   %rbp
  4066f5:	48 89 e5             	mov    %rsp,%rbp
  4066f8:	48 83 ec 10          	sub    $0x10,%rsp
  4066fc:	48 89 7d f8          	mov    %rdi,0xfffffffffffffff8(%rbp)
  406700:	66 89 75 f4          	mov    %si,0xfffffffffffffff4(%rbp)
  406704:	66 89 55 f0          	mov    %dx,0xfffffffffffffff0(%rbp)
  406708:	0f bf 55 f0          	movswl 0xfffffffffffffff0(%rbp),%edx
  40670c:	0f b7 45 f4          	movzwl 0xfffffffffffffff4(%rbp),%eax
  406710:	83 c0 02             	add    $0x2,%eax
  406713:	0f b7 f0             	movzwl %ax,%esi
  406716:	48 8b 7d f8          	mov    0xfffffffffffffff8(%rbp),%rdi
  40671a:	e8 a9 ff ff ff       	callq  4066c8 <_ZNK23ACE_SV_Semaphore_Simple7acquireEts>
  40671f:	c9                   	leaveq 
  406720:	c3                   	retq   
  406721:	90                   	nop    

0000000000406722 <_ZN17ACE_Process_Mutex7acquireEv>:
  406722:	55                   	push   %rbp
  406723:	48 89 e5             	mov    %rsp,%rbp
  406726:	48 83 ec 10          	sub    $0x10,%rsp
  40672a:	48 89 7d f8          	mov    %rdi,0xfffffffffffffff8(%rbp)
  40672e:	48 8b 7d f8          	mov    0xfffffffffffffff8(%rbp),%rdi
  406732:	48 83 c7 64          	add    $0x64,%rdi
  406736:	ba 00 10 00 00       	mov    $0x1000,%edx
  40673b:	be 00 00 00 00       	mov    $0x0,%esi
  406740:	e8 af ff ff ff       	callq  4066f4 <_ZNK24ACE_SV_Semaphore_Complex7acquireEts>
  406745:	c9                   	leaveq 
  406746:	c3                   	retq   
  406747:	90                   	nop    

0000000000406748 <_ZN9ACE_GuardI17ACE_Process_MutexE7acquireEv>:
  406748:	55                   	push   %rbp
  406749:	48 89 e5             	mov    %rsp,%rbp
  40674c:	48 83 ec 10          	sub    $0x10,%rsp
  406750:	48 89 7d f8          	mov    %rdi,0xfffffffffffffff8(%rbp)
  406754:	48 8b 45 f8          	mov    0xfffffffffffffff8(%rbp),%rax
  406758:	48 8b 38             	mov    (%rax),%rdi
  40675b:	e8 c2 ff ff ff       	callq  406722 <_ZN17ACE_Process_Mutex7acquireEv>
  406760:	89 c2                	mov    %eax,%edx
  406762:	48 8b 45 f8          	mov    0xfffffffffffffff8(%rbp),%rax
  406766:	89 50 08             	mov    %edx,0x8(%rax)
  406769:	48 8b 45 f8          	mov    0xfffffffffffffff8(%rbp),%rax
  40676d:	8b 40 08             	mov    0x8(%rax),%eax
  406770:	c9                   	leaveq 
  406771:	c3                   	retq   

0000000000406772 <_ZN9ACE_GuardI17ACE_Process_MutexEC1ERS0_>:
  406772:	55                   	push   %rbp
  406773:	48 89 e5             	mov    %rsp,%rbp
  406776:	48 83 ec 10          	sub    $0x10,%rsp
  40677a:	48 89 7d f8          	mov    %rdi,0xfffffffffffffff8(%rbp)
  40677e:	48 89 75 f0          	mov    %rsi,0xfffffffffffffff0(%rbp)
  406782:	48 8b 55 f8          	mov    0xfffffffffffffff8(%rbp),%rdx
  406786:	48 8b 45 f0          	mov    0xfffffffffffffff0(%rbp),%rax
  40678a:	48 89 02             	mov    %rax,(%rdx)
  40678d:	48 8b 45 f8          	mov    0xfffffffffffffff8(%rbp),%rax
  406791:	c7 40 08 00 00 00 00 	movl   $0x0,0x8(%rax)
  406798:	48 8b 7d f8          	mov    0xfffffffffffffff8(%rbp),%rdi
  40679c:	e8 a7 ff ff ff       	callq  406748 <_ZN9ACE_GuardI17ACE_Process_MutexE7acquireEv>
  4067a1:	c9                   	leaveq 
  4067a2:	c3                   	retq   
  4067a3:	90                   	nop    

00000000004067a4 <_ZNK23ACE_SV_Semaphore_Simple7releaseEts>:
  4067a4:	55                   	push   %rbp
  4067a5:	48 89 e5             	mov    %rsp,%rbp
  4067a8:	48 83 ec 10          	sub    $0x10,%rsp
  4067ac:	48 89 7d f8          	mov    %rdi,0xfffffffffffffff8(%rbp)
  4067b0:	66 89 75 f4          	mov    %si,0xfffffffffffffff4(%rbp)
  4067b4:	66 89 55 f0          	mov    %dx,0xfffffffffffffff0(%rbp)
  4067b8:	0f bf 4d f0          	movswl 0xfffffffffffffff0(%rbp),%ecx
  4067bc:	0f b7 55 f4          	movzwl 0xfffffffffffffff4(%rbp),%edx
  4067c0:	48 8b 7d f8          	mov    0xfffffffffffffff8(%rbp),%rdi
  4067c4:	be 01 00 00 00       	mov    $0x1,%esi
  4067c9:	e8 5a d6 ff ff       	callq  403e28 <_ZNK23ACE_SV_Semaphore_Simple2opEsts@plt>
  4067ce:	c9                   	leaveq 
  4067cf:	c3                   	retq   

00000000004067d0 <_ZNK24ACE_SV_Semaphore_Complex7releaseEts>:
  4067d0:	55                   	push   %rbp
  4067d1:	48 89 e5             	mov    %rsp,%rbp
  4067d4:	48 83 ec 10          	sub    $0x10,%rsp
  4067d8:	48 89 7d f8          	mov    %rdi,0xfffffffffffffff8(%rbp)
  4067dc:	66 89 75 f4          	mov    %si,0xfffffffffffffff4(%rbp)
  4067e0:	66 89 55 f0          	mov    %dx,0xfffffffffffffff0(%rbp)
  4067e4:	0f bf 55 f0          	movswl 0xfffffffffffffff0(%rbp),%edx
  4067e8:	0f b7 45 f4          	movzwl 0xfffffffffffffff4(%rbp),%eax
  4067ec:	83 c0 02             	add    $0x2,%eax
  4067ef:	0f b7 f0             	movzwl %ax,%esi
  4067f2:	48 8b 7d f8          	mov    0xfffffffffffffff8(%rbp),%rdi
  4067f6:	e8 a9 ff ff ff       	callq  4067a4 <_ZNK23ACE_SV_Semaphore_Simple7releaseEts>
  4067fb:	c9                   	leaveq 
  4067fc:	c3                   	retq   
  4067fd:	90                   	nop    

00000000004067fe <_ZN17ACE_Process_Mutex7releaseEv>:
  4067fe:	55                   	push   %rbp
  4067ff:	48 89 e5             	mov    %rsp,%rbp
  406802:	48 83 ec 10          	sub    $0x10,%rsp
  406806:	48 89 7d f8          	mov    %rdi,0xfffffffffffffff8(%rbp)
  40680a:	48 8b 7d f8          	mov    0xfffffffffffffff8(%rbp),%rdi
  40680e:	48 83 c7 64          	add    $0x64,%rdi
  406812:	ba 00 10 00 00       	mov    $0x1000,%edx
  406817:	be 00 00 00 00       	mov    $0x0,%esi
  40681c:	e8 af ff ff ff       	callq  4067d0 <_ZNK24ACE_SV_Semaphore_Complex7releaseEts>
  406821:	c9                   	leaveq 
  406822:	c3                   	retq   
  406823:	90                   	nop    

0000000000406824 <_ZN9ACE_GuardI17ACE_Process_MutexE7releaseEv>:
  406824:	55                   	push   %rbp
  406825:	48 89 e5             	mov    %rsp,%rbp
  406828:	48 83 ec 10          	sub    $0x10,%rsp
  40682c:	48 89 7d f8          	mov    %rdi,0xfffffffffffffff8(%rbp)
  406830:	48 8b 45 f8          	mov    0xfffffffffffffff8(%rbp),%rax
  406834:	8b 40 08             	mov    0x8(%rax),%eax
  406837:	83 f8 ff             	cmp    $0xffffffffffffffff,%eax
  40683a:	75 09                	jne    406845 <_ZN9ACE_GuardI17ACE_Process_MutexE7releaseEv+0x21>
  40683c:	c7 45 f4 ff ff ff ff 	movl   $0xffffffff,0xfffffffffffffff4(%rbp)
  406843:	eb 1a                	jmp    40685f <_ZN9ACE_GuardI17ACE_Process_MutexE7releaseEv+0x3b>
  406845:	48 8b 45 f8          	mov    0xfffffffffffffff8(%rbp),%rax
  406849:	c7 40 08 ff ff ff ff 	movl   $0xffffffff,0x8(%rax)
  406850:	48 8b 45 f8          	mov    0xfffffffffffffff8(%rbp),%rax
  406854:	48 8b 38             	mov    (%rax),%rdi
  406857:	e8 a2 ff ff ff       	callq  4067fe <_ZN17ACE_Process_Mutex7releaseEv>
  40685c:	89 45 f4             	mov    %eax,0xfffffffffffffff4(%rbp)
  40685f:	8b 45 f4             	mov    0xfffffffffffffff4(%rbp),%eax
  406862:	c9                   	leaveq 
  406863:	c3                   	retq   

0000000000406864 <_ZN9ACE_GuardI17ACE_Process_MutexED1Ev>:
  406864:	55                   	push   %rbp
  406865:	48 89 e5             	mov    %rsp,%rbp
  406868:	48 83 ec 10          	sub    $0x10,%rsp
  40686c:	48 89 7d f8          	mov    %rdi,0xfffffffffffffff8(%rbp)
  406870:	48 8b 7d f8          	mov    0xfffffffffffffff8(%rbp),%rdi
  406874:	e8 ab ff ff ff       	callq  406824 <_ZN9ACE_GuardI17ACE_Process_MutexE7releaseEv>
  406879:	c9                   	leaveq 
  40687a:	c3                   	retq   
  40687b:	90                   	nop    

000000000040687c <_ZN12ACE_Malloc_TI20ACE_MMAP_Memory_Pool17ACE_Process_Mutex20ACE_PI_Control_BlockE4freeEPv>:
  40687c:	55                   	push   %rbp
  40687d:	48 89 e5             	mov    %rsp,%rbp
  406880:	48 83 ec 20          	sub    $0x20,%rsp
  406884:	48 89 7d e8          	mov    %rdi,0xffffffffffffffe8(%rbp)
  406888:	48 89 75 e0          	mov    %rsi,0xffffffffffffffe0(%rbp)
  40688c:	48 8b 45 e8          	mov    0xffffffffffffffe8(%rbp),%rax
  406890:	48 8b b0 98 20 00 00 	mov    0x2098(%rax),%rsi
  406897:	48 8d 7d f0          	lea    0xfffffffffffffff0(%rbp),%rdi
  40689b:	e8 d2 fe ff ff       	callq  406772 <_ZN9ACE_GuardI17ACE_Process_MutexEC1ERS0_>
  4068a0:	48 8d 7d f0          	lea    0xfffffffffffffff0(%rbp),%rdi
  4068a4:	e8 6d f8 ff ff       	callq  406116 <_ZNK9ACE_GuardI17ACE_Process_MutexE6lockedEv>
  4068a9:	85 c0                	test   %eax,%eax
  4068ab:	0f 95 c0             	setne  %al
  4068ae:	83 f0 01             	xor    $0x1,%eax
  4068b1:	84 c0                	test   %al,%al
  4068b3:	74 02                	je     4068b7 <_ZN12ACE_Malloc_TI20ACE_MMAP_Memory_Pool17ACE_Process_Mutex20ACE_PI_Control_BlockE4freeEPv+0x3b>
  4068b5:	eb 0d                	jmp    4068c4 <_ZN12ACE_Malloc_TI20ACE_MMAP_Memory_Pool17ACE_Process_Mutex20ACE_PI_Control_BlockE4freeEPv+0x48>
  4068b7:	48 8b 75 e0          	mov    0xffffffffffffffe0(%rbp),%rsi
  4068bb:	48 8b 7d e8          	mov    0xffffffffffffffe8(%rbp),%rdi
  4068bf:	e8 14 f9 ff ff       	callq  4061d8 <_ZN12ACE_Malloc_TI20ACE_MMAP_Memory_Pool17ACE_Process_Mutex20ACE_PI_Control_BlockE11shared_freeEPv>
  4068c4:	48 8d 7d f0          	lea    0xfffffffffffffff0(%rbp),%rdi
  4068c8:	e8 97 ff ff ff       	callq  406864 <_ZN9ACE_GuardI17ACE_Process_MutexED1Ev>
  4068cd:	c9                   	leaveq 
  4068ce:	c3                   	retq   
  4068cf:	90                   	nop    

00000000004068d0 <_ZN11ACE_MEM_SAP14release_bufferEP16ACE_MEM_SAP_Node>:
  4068d0:	55                   	push   %rbp
  4068d1:	48 89 e5             	mov    %rsp,%rbp
  4068d4:	48 83 ec 20          	sub    $0x20,%rsp
  4068d8:	48 89 7d f8          	mov    %rdi,0xfffffffffffffff8(%rbp)
  4068dc:	48 89 75 f0          	mov    %rsi,0xfffffffffffffff0(%rbp)
  4068e0:	48 8b 45 f8          	mov    0xfffffffffffffff8(%rbp),%rax
  4068e4:	48 8b 40 10          	mov    0x10(%rax),%rax
  4068e8:	48 85 c0             	test   %rax,%rax
  4068eb:	75 09                	jne    4068f6 <_ZN11ACE_MEM_SAP14release_bufferEP16ACE_MEM_SAP_Node+0x26>
  4068ed:	c7 45 ec ff ff ff ff 	movl   $0xffffffff,0xffffffffffffffec(%rbp)
  4068f4:	eb 18                	jmp    40690e <_ZN11ACE_MEM_SAP14release_bufferEP16ACE_MEM_SAP_Node+0x3e>
  4068f6:	48 8b 45 f8          	mov    0xfffffffffffffff8(%rbp),%rax
  4068fa:	48 8b 78 10          	mov    0x10(%rax),%rdi
  4068fe:	48 8b 75 f0          	mov    0xfffffffffffffff0(%rbp),%rsi
  406902:	e8 75 ff ff ff       	callq  40687c <_ZN12ACE_Malloc_TI20ACE_MMAP_Memory_Pool17ACE_Process_Mutex20ACE_PI_Control_BlockE4freeEPv>
  406907:	c7 45 ec 00 00 00 00 	movl   $0x0,0xffffffffffffffec(%rbp)
  40690e:	8b 45 ec             	mov    0xffffffffffffffec(%rbp),%eax
  406911:	c9                   	leaveq 
  406912:	c3                   	retq   
  406913:	90                   	nop    

0000000000406914 <_ZN10ACE_MEM_IO14fetch_recv_bufEiPK14ACE_Time_Value>:
  406914:	55                   	push   %rbp
  406915:	48 89 e5             	mov    %rsp,%rbp
  406918:	48 83 ec 30          	sub    $0x30,%rsp
  40691c:	48 89 7d e8          	mov    %rdi,0xffffffffffffffe8(%rbp)
  406920:	89 75 e4             	mov    %esi,0xffffffffffffffe4(%rbp)
  406923:	48 89 55 d8          	mov    %rdx,0xffffffffffffffd8(%rbp)
  406927:	48 8b 45 e8          	mov    0xffffffffffffffe8(%rbp),%rax
  40692b:	48 8b 40 08          	mov    0x8(%rax),%rax
  40692f:	48 85 c0             	test   %rax,%rax
  406932:	75 0d                	jne    406941 <_ZN10ACE_MEM_IO14fetch_recv_bufEiPK14ACE_Time_Value+0x2d>
  406934:	48 c7 45 d0 ff ff ff 	movq   $0xffffffffffffffff,0xffffffffffffffd0(%rbp)
  40693b:	ff 
  40693c:	e9 c1 00 00 00       	jmpq   406a02 <_ZN10ACE_MEM_IO14fetch_recv_bufEiPK14ACE_Time_Value+0xee>
  406941:	48 8b 45 e8          	mov    0xffffffffffffffe8(%rbp),%rax
  406945:	48 8b 50 18          	mov    0x18(%rax),%rdx
  406949:	48 8b 45 e8          	mov    0xffffffffffffffe8(%rbp),%rax
  40694d:	48 8b 40 20          	mov    0x20(%rax),%rax
  406951:	48 39 c2             	cmp    %rax,%rdx
  406954:	74 18                	je     40696e <_ZN10ACE_MEM_IO14fetch_recv_bufEiPK14ACE_Time_Value+0x5a>
  406956:	48 8d 15 b3 03 02 00 	lea    132019(%rip),%rdx        # 426d10 <__dso_handle+0x28>
  40695d:	be 60 00 00 00       	mov    $0x60,%esi
  406962:	48 8d 3d cf 03 02 00 	lea    132047(%rip),%rdi        # 426d38 <__dso_handle+0x50>
  406969:	e8 3a da ff ff       	callq  4043a8 <_Z12__ace_assertPKciS0_@plt>
  40696e:	48 8b 45 e8          	mov    0xffffffffffffffe8(%rbp),%rax
  406972:	48 8b 40 10          	mov    0x10(%rax),%rax
  406976:	48 85 c0             	test   %rax,%rax
  406979:	74 15                	je     406990 <_ZN10ACE_MEM_IO14fetch_recv_bufEiPK14ACE_Time_Value+0x7c>
  40697b:	48 8b 45 e8          	mov    0xffffffffffffffe8(%rbp),%rax
  40697f:	48 8b 70 10          	mov    0x10(%rax),%rsi
  406983:	48 8b 45 e8          	mov    0xffffffffffffffe8(%rbp),%rax
  406987:	48 8b 78 08          	mov    0x8(%rax),%rdi
  40698b:	e8 40 ff ff ff       	callq  4068d0 <_ZN11ACE_MEM_SAP14release_bufferEP16ACE_MEM_SAP_Node>
  406990:	48 8b 45 e8          	mov    0xffffffffffffffe8(%rbp),%rax
  406994:	48 c7 40 20 00 00 00 	movq   $0x0,0x20(%rax)
  40699b:	00 
  40699c:	48 c7 45 f8 00 00 00 	movq   $0x0,0xfffffffffffffff8(%rbp)
  4069a3:	00 
  4069a4:	48 8b 45 e8          	mov    0xffffffffffffffe8(%rbp),%rax
  4069a8:	48 8b 40 08          	mov    0x8(%rax),%rax
  4069ac:	48 8b 00             	mov    (%rax),%rax
  4069af:	48 83 c0 20          	add    $0x20,%rax
  4069b3:	4c 8b 00             	mov    (%rax),%r8
  4069b6:	48 8b 75 e8          	mov    0xffffffffffffffe8(%rbp),%rsi
  4069ba:	48 83 c6 10          	add    $0x10,%rsi
  4069be:	48 8b 45 e8          	mov    0xffffffffffffffe8(%rbp),%rax
  4069c2:	48 8b 78 08          	mov    0x8(%rax),%rdi
  4069c6:	48 8b 4d d8          	mov    0xffffffffffffffd8(%rbp),%rcx
  4069ca:	8b 55 e4             	mov    0xffffffffffffffe4(%rbp),%edx
  4069cd:	41 ff d0             	callq  *%r8
  4069d0:	48 89 45 f8          	mov    %rax,0xfffffffffffffff8(%rbp)
  4069d4:	48 83 7d f8 00       	cmpq   $0x0,0xfffffffffffffff8(%rbp)
  4069d9:	0f 9f c0             	setg   %al
  4069dc:	84 c0                	test   %al,%al
  4069de:	74 0e                	je     4069ee <_ZN10ACE_MEM_IO14fetch_recv_bufEiPK14ACE_Time_Value+0xda>
  4069e0:	48 8b 55 e8          	mov    0xffffffffffffffe8(%rbp),%rdx
  4069e4:	48 8b 45 f8          	mov    0xfffffffffffffff8(%rbp),%rax
  4069e8:	48 89 42 18          	mov    %rax,0x18(%rdx)
  4069ec:	eb 0c                	jmp    4069fa <_ZN10ACE_MEM_IO14fetch_recv_bufEiPK14ACE_Time_Value+0xe6>
  4069ee:	48 8b 45 e8          	mov    0xffffffffffffffe8(%rbp),%rax
  4069f2:	48 c7 40 18 00 00 00 	movq   $0x0,0x18(%rax)
  4069f9:	00 
  4069fa:	48 8b 45 f8          	mov    0xfffffffffffffff8(%rbp),%rax
  4069fe:	48 89 45 d0          	mov    %rax,0xffffffffffffffd0(%rbp)
  406a02:	48 8b 45 d0          	mov    0xffffffffffffffd0(%rbp),%rax
  406a06:	c9                   	leaveq 
  406a07:	c3                   	retq   

0000000000406a08 <_ZN6ACE_OS6memcpyEPvPKvm>:
  406a08:	55                   	push   %rbp
  406a09:	48 89 e5             	mov    %rsp,%rbp
  406a0c:	48 89 7d f8          	mov    %rdi,0xfffffffffffffff8(%rbp)
  406a10:	48 89 75 f0          	mov    %rsi,0xfffffffffffffff0(%rbp)
  406a14:	48 89 55 e8          	mov    %rdx,0xffffffffffffffe8(%rbp)
  406a18:	4c 8b 45 f8          	mov    0xfffffffffffffff8(%rbp),%r8
  406a1c:	48 8b 45 f0          	mov    0xfffffffffffffff0(%rbp),%rax
  406a20:	48 8b 55 e8          	mov    0xffffffffffffffe8(%rbp),%rdx
  406a24:	4c 89 c7             	mov    %r8,%rdi
  406a27:	48 89 c6             	mov    %rax,%rsi
  406a2a:	fc                   	cld    
  406a2b:	48 89 d1             	mov    %rdx,%rcx
  406a2e:	f3 a4                	rep movsb %ds:(%rsi),%es:(%rdi)
  406a30:	4c 89 c0             	mov    %r8,%rax
  406a33:	c9                   	leaveq 
  406a34:	c3                   	retq   
  406a35:	90                   	nop    

0000000000406a36 <_ZN10ACE_MEM_IO4recvEPvmiPK14ACE_Time_Value>:
  406a36:	55                   	push   %rbp
  406a37:	48 89 e5             	mov    %rsp,%rbp
  406a3a:	48 83 ec 60          	sub    $0x60,%rsp
  406a3e:	48 89 7d d8          	mov    %rdi,0xffffffffffffffd8(%rbp)
  406a42:	48 89 75 d0          	mov    %rsi,0xffffffffffffffd0(%rbp)
  406a46:	48 89 55 c8          	mov    %rdx,0xffffffffffffffc8(%rbp)
  406a4a:	89 4d c4             	mov    %ecx,0xffffffffffffffc4(%rbp)
  406a4d:	4c 89 45 b8          	mov    %r8,0xffffffffffffffb8(%rbp)
  406a51:	48 c7 45 e0 00 00 00 	movq   $0x0,0xffffffffffffffe0(%rbp)
  406a58:	00 
  406a59:	48 8b 45 d8          	mov    0xffffffffffffffd8(%rbp),%rax
  406a5d:	48 8b 50 18          	mov    0x18(%rax),%rdx
  406a61:	48 8b 45 d8          	mov    0xffffffffffffffd8(%rbp),%rax
  406a65:	48 8b 40 20          	mov    0x20(%rax),%rax
  406a69:	48 89 d1             	mov    %rdx,%rcx
  406a6c:	48 29 c1             	sub    %rax,%rcx
  406a6f:	48 89 c8             	mov    %rcx,%rax
  406a72:	48 89 45 e8          	mov    %rax,0xffffffffffffffe8(%rbp)
  406a76:	48 83 7d e8 00       	cmpq   $0x0,0xffffffffffffffe8(%rbp)
  406a7b:	75 34                	jne    406ab1 <_ZN10ACE_MEM_IO4recvEPvmiPK14ACE_Time_Value+0x7b>
  406a7d:	48 8b 55 b8          	mov    0xffffffffffffffb8(%rbp),%rdx
  406a81:	8b 75 c4             	mov    0xffffffffffffffc4(%rbp),%esi
  406a84:	48 8b 7d d8          	mov    0xffffffffffffffd8(%rbp),%rdi
  406a88:	e8 87 fe ff ff       	callq  406914 <_ZN10ACE_MEM_IO14fetch_recv_bufEiPK14ACE_Time_Value>
  406a8d:	48 89 45 f8          	mov    %rax,0xfffffffffffffff8(%rbp)
  406a91:	48 83 7d f8 00       	cmpq   $0x0,0xfffffffffffffff8(%rbp)
  406a96:	7f 0d                	jg     406aa5 <_ZN10ACE_MEM_IO4recvEPvmiPK14ACE_Time_Value+0x6f>
  406a98:	48 8b 45 f8          	mov    0xfffffffffffffff8(%rbp),%rax
  406a9c:	48 89 45 a8          	mov    %rax,0xffffffffffffffa8(%rbp)
  406aa0:	e9 88 00 00 00       	jmpq   406b2d <_ZN10ACE_MEM_IO4recvEPvmiPK14ACE_Time_Value+0xf7>
  406aa5:	48 8b 45 d8          	mov    0xffffffffffffffd8(%rbp),%rax
  406aa9:	48 8b 40 18          	mov    0x18(%rax),%rax
  406aad:	48 89 45 e8          	mov    %rax,0xffffffffffffffe8(%rbp)
  406ab1:	48 8b 45 c8          	mov    0xffffffffffffffc8(%rbp),%rax
  406ab5:	48 3b 45 e8          	cmp    0xffffffffffffffe8(%rbp),%rax
  406ab9:	76 0a                	jbe    406ac5 <_ZN10ACE_MEM_IO4recvEPvmiPK14ACE_Time_Value+0x8f>
  406abb:	48 8b 4d e8          	mov    0xffffffffffffffe8(%rbp),%rcx
  406abf:	48 89 4d b0          	mov    %rcx,0xffffffffffffffb0(%rbp)
  406ac3:	eb 08                	jmp    406acd <_ZN10ACE_MEM_IO4recvEPvmiPK14ACE_Time_Value+0x97>
  406ac5:	48 8b 45 c8          	mov    0xffffffffffffffc8(%rbp),%rax
  406ac9:	48 89 45 b0          	mov    %rax,0xffffffffffffffb0(%rbp)
  406acd:	48 8b 4d b0          	mov    0xffffffffffffffb0(%rbp),%rcx
  406ad1:	48 89 4d f0          	mov    %rcx,0xfffffffffffffff0(%rbp)
  406ad5:	48 8b 45 d8          	mov    0xffffffffffffffd8(%rbp),%rax
  406ad9:	48 8b 78 10          	mov    0x10(%rax),%rdi
  406add:	e8 de f4 ff ff       	callq  405fc0 <_ZN16ACE_MEM_SAP_Node4dataEv>
  406ae2:	48 89 c2             	mov    %rax,%rdx
  406ae5:	48 8b 45 d8          	mov    0xffffffffffffffd8(%rbp),%rax
  406ae9:	48 8b 40 20          	mov    0x20(%rax),%rax
  406aed:	48 8d 34 02          	lea    (%rdx,%rax,1),%rsi
  406af1:	48 8b 55 d0          	mov    0xffffffffffffffd0(%rbp),%rdx
  406af5:	48 8b 45 e0          	mov    0xffffffffffffffe0(%rbp),%rax
  406af9:	48 8d 3c 02          	lea    (%rdx,%rax,1),%rdi
  406afd:	48 8b 55 f0          	mov    0xfffffffffffffff0(%rbp),%rdx
  406b01:	e8 02 ff ff ff       	callq  406a08 <_ZN6ACE_OS6memcpyEPvPKvm>
  406b06:	48 8b 45 d8          	mov    0xffffffffffffffd8(%rbp),%rax
  406b0a:	48 8b 40 20          	mov    0x20(%rax),%rax
  406b0e:	48 03 45 f0          	add    0xfffffffffffffff0(%rbp),%rax
  406b12:	48 89 c2             	mov    %rax,%rdx
  406b15:	48 8b 45 d8          	mov    0xffffffffffffffd8(%rbp),%rax
  406b19:	48 89 50 20          	mov    %rdx,0x20(%rax)
  406b1d:	48 8b 45 f0          	mov    0xfffffffffffffff0(%rbp),%rax
  406b21:	48 01 45 e0          	add    %rax,0xffffffffffffffe0(%rbp)
  406b25:	48 8b 45 e0          	mov    0xffffffffffffffe0(%rbp),%rax
  406b29:	48 89 45 a8          	mov    %rax,0xffffffffffffffa8(%rbp)
  406b2d:	48 8b 45 a8          	mov    0xffffffffffffffa8(%rbp),%rax
  406b31:	c9                   	leaveq 
  406b32:	c3                   	retq   
  406b33:	90                   	nop    

0000000000406b34 <_ZN10ACE_MEM_IO4recvEPvmPK14ACE_Time_Value>:
  406b34:	55                   	push   %rbp
  406b35:	48 89 e5             	mov    %rsp,%rbp
  406b38:	48 83 ec 20          	sub    $0x20,%rsp
  406b3c:	48 89 7d f8          	mov    %rdi,0xfffffffffffffff8(%rbp)
  406b40:	48 89 75 f0          	mov    %rsi,0xfffffffffffffff0(%rbp)
  406b44:	48 89 55 e8          	mov    %rdx,0xffffffffffffffe8(%rbp)
  406b48:	48 89 4d e0          	mov    %rcx,0xffffffffffffffe0(%rbp)
  406b4c:	48 8b 45 e0          	mov    0xffffffffffffffe0(%rbp),%rax
  406b50:	48 8b 55 e8          	mov    0xffffffffffffffe8(%rbp),%rdx
  406b54:	48 8b 75 f0          	mov    0xfffffffffffffff0(%rbp),%rsi
  406b58:	48 8b 7d f8          	mov    0xfffffffffffffff8(%rbp),%rdi
  406b5c:	49 89 c0             	mov    %rax,%r8
  406b5f:	b9 00 00 00 00       	mov    $0x0,%ecx
  406b64:	e8 cd fe ff ff       	callq  406a36 <_ZN10ACE_MEM_IO4recvEPvmiPK14ACE_Time_Value>
  406b69:	c9                   	leaveq 
  406b6a:	c3                   	retq   
  406b6b:	90                   	nop    

0000000000406b6c <_ZN10ACE_MEM_IO4recvEPvmi>:
  406b6c:	55                   	push   %rbp
  406b6d:	48 89 e5             	mov    %rsp,%rbp
  406b70:	48 83 ec 20          	sub    $0x20,%rsp
  406b74:	48 89 7d f8          	mov    %rdi,0xfffffffffffffff8(%rbp)
  406b78:	48 89 75 f0          	mov    %rsi,0xfffffffffffffff0(%rbp)
  406b7c:	48 89 55 e8          	mov    %rdx,0xffffffffffffffe8(%rbp)
  406b80:	89 4d e4             	mov    %ecx,0xffffffffffffffe4(%rbp)
  406b83:	8b 4d e4             	mov    0xffffffffffffffe4(%rbp),%ecx
  406b86:	48 8b 55 e8          	mov    0xffffffffffffffe8(%rbp),%rdx
  406b8a:	48 8b 75 f0          	mov    0xfffffffffffffff0(%rbp),%rsi
  406b8e:	48 8b 7d f8          	mov    0xfffffffffffffff8(%rbp),%rdi
  406b92:	41 b8 00 00 00 00    	mov    $0x0,%r8d
  406b98:	e8 99 fe ff ff       	callq  406a36 <_ZN10ACE_MEM_IO4recvEPvmiPK14ACE_Time_Value>
  406b9d:	c9                   	leaveq 
  406b9e:	c3                   	retq   
  406b9f:	90                   	nop    

0000000000406ba0 <_ZN10ACE_MEM_IO4recvEPvm>:
  406ba0:	55                   	push   %rbp
  406ba1:	48 89 e5             	mov    %rsp,%rbp
  406ba4:	48 83 ec 20          	sub    $0x20,%rsp
  406ba8:	48 89 7d f8          	mov    %rdi,0xfffffffffffffff8(%rbp)
  406bac:	48 89 75 f0          	mov    %rsi,0xfffffffffffffff0(%rbp)
  406bb0:	48 89 55 e8          	mov    %rdx,0xffffffffffffffe8(%rbp)
  406bb4:	48 8b 55 e8          	mov    0xffffffffffffffe8(%rbp),%rdx
  406bb8:	48 8b 75 f0          	mov    0xfffffffffffffff0(%rbp),%rsi
  406bbc:	48 8b 7d f8          	mov    0xfffffffffffffff8(%rbp),%rdi
  406bc0:	b9 00 00 00 00       	mov    $0x0,%ecx
  406bc5:	e8 a2 ff ff ff       	callq  406b6c <_ZN10ACE_MEM_IO4recvEPvmi>
  406bca:	c9                   	leaveq 
  406bcb:	c3                   	retq   

0000000000406bcc <_ZN14ACE_MEM_Stream6recv_nEPvm>:
  406bcc:	55                   	push   %rbp
  406bcd:	48 89 e5             	mov    %rsp,%rbp
  406bd0:	48 83 ec 20          	sub    $0x20,%rsp
  406bd4:	48 89 7d f8          	mov    %rdi,0xfffffffffffffff8(%rbp)
  406bd8:	48 89 75 f0          	mov    %rsi,0xfffffffffffffff0(%rbp)
  406bdc:	48 89 55 e8          	mov    %rdx,0xffffffffffffffe8(%rbp)
  406be0:	48 8b 7d f8          	mov    0xfffffffffffffff8(%rbp),%rdi
  406be4:	48 8b 55 e8          	mov    0xffffffffffffffe8(%rbp),%rdx
  406be8:	48 8b 75 f0          	mov    0xfffffffffffffff0(%rbp),%rsi
  406bec:	e8 af ff ff ff       	callq  406ba0 <_ZN10ACE_MEM_IO4recvEPvm>
  406bf1:	c9                   	leaveq 
  406bf2:	c3                   	retq   
  406bf3:	90                   	nop    

0000000000406bf4 <_ZN3ACE6recv_nEiPvmPK14ACE_Time_ValuePm>:
  406bf4:	55                   	push   %rbp
  406bf5:	48 89 e5             	mov    %rsp,%rbp
  406bf8:	48 83 ec 30          	sub    $0x30,%rsp
  406bfc:	89 7d fc             	mov    %edi,0xfffffffffffffffc(%rbp)
  406bff:	48 89 75 f0          	mov    %rsi,0xfffffffffffffff0(%rbp)
  406c03:	48 89 55 e8          	mov    %rdx,0xffffffffffffffe8(%rbp)
  406c07:	48 89 4d e0          	mov    %rcx,0xffffffffffffffe0(%rbp)
  406c0b:	4c 89 45 d8          	mov    %r8,0xffffffffffffffd8(%rbp)
  406c0f:	48 83 7d e0 00       	cmpq   $0x0,0xffffffffffffffe0(%rbp)
  406c14:	75 1a                	jne    406c30 <_ZN3ACE6recv_nEiPvmPK14ACE_Time_ValuePm+0x3c>
  406c16:	48 8b 4d d8          	mov    0xffffffffffffffd8(%rbp),%rcx
  406c1a:	48 8b 55 e8          	mov    0xffffffffffffffe8(%rbp),%rdx
  406c1e:	48 8b 75 f0          	mov    0xfffffffffffffff0(%rbp),%rsi
  406c22:	8b 7d fc             	mov    0xfffffffffffffffc(%rbp),%edi
  406c25:	e8 ce d3 ff ff       	callq  403ff8 <_ZN3ACE8recv_n_iEiPvmPm@plt>
  406c2a:	48 89 45 d0          	mov    %rax,0xffffffffffffffd0(%rbp)
  406c2e:	eb 1f                	jmp    406c4f <_ZN3ACE6recv_nEiPvmPK14ACE_Time_ValuePm+0x5b>
  406c30:	48 8b 45 d8          	mov    0xffffffffffffffd8(%rbp),%rax
  406c34:	48 8b 4d e0          	mov    0xffffffffffffffe0(%rbp),%rcx
  406c38:	48 8b 55 e8          	mov    0xffffffffffffffe8(%rbp),%rdx
  406c3c:	48 8b 75 f0          	mov    0xfffffffffffffff0(%rbp),%rsi
  406c40:	8b 7d fc             	mov    0xfffffffffffffffc(%rbp),%edi
  406c43:	49 89 c0             	mov    %rax,%r8
  406c46:	e8 3d d3 ff ff       	callq  403f88 <_ZN3ACE8recv_n_iEiPvmPK14ACE_Time_ValuePm@plt>
  406c4b:	48 89 45 d0          	mov    %rax,0xffffffffffffffd0(%rbp)
  406c4f:	48 8b 45 d0          	mov    0xffffffffffffffd0(%rbp),%rax
  406c53:	c9                   	leaveq 
  406c54:	c3                   	retq   
  406c55:	90                   	nop    

0000000000406c56 <_ZNK15ACE_SOCK_Stream6recv_nEPvmPK14ACE_Time_ValuePm>:
  406c56:	55                   	push   %rbp
  406c57:	48 89 e5             	mov    %rsp,%rbp
  406c5a:	48 83 ec 30          	sub    $0x30,%rsp
  406c5e:	48 89 7d f8          	mov    %rdi,0xfffffffffffffff8(%rbp)
  406c62:	48 89 75 f0          	mov    %rsi,0xfffffffffffffff0(%rbp)
  406c66:	48 89 55 e8          	mov    %rdx,0xffffffffffffffe8(%rbp)
  406c6a:	48 89 4d e0          	mov    %rcx,0xffffffffffffffe0(%rbp)
  406c6e:	4c 89 45 d8          	mov    %r8,0xffffffffffffffd8(%rbp)
  406c72:	48 8b 7d f8          	mov    0xfffffffffffffff8(%rbp),%rdi
  406c76:	e8 a1 f2 ff ff       	callq  405f1c <_ZNK11ACE_IPC_SAP10get_handleEv>
  406c7b:	89 c7                	mov    %eax,%edi
  406c7d:	48 8b 45 d8          	mov    0xffffffffffffffd8(%rbp),%rax
  406c81:	48 8b 4d e0          	mov    0xffffffffffffffe0(%rbp),%rcx
  406c85:	48 8b 55 e8          	mov    0xffffffffffffffe8(%rbp),%rdx
  406c89:	48 8b 75 f0          	mov    0xfffffffffffffff0(%rbp),%rsi
  406c8d:	49 89 c0             	mov    %rax,%r8
  406c90:	e8 5f ff ff ff       	callq  406bf4 <_ZN3ACE6recv_nEiPvmPK14ACE_Time_ValuePm>
  406c95:	c9                   	leaveq 
  406c96:	c3                   	retq   
  406c97:	90                   	nop    

0000000000406c98 <_ZNK19ACE_SSL_SOCK_Stream6recv_nEPvi>:
  406c98:	55                   	push   %rbp
  406c99:	48 89 e5             	mov    %rsp,%rbp
  406c9c:	48 83 ec 20          	sub    $0x20,%rsp
  406ca0:	48 89 7d f8          	mov    %rdi,0xfffffffffffffff8(%rbp)
  406ca4:	48 89 75 f0          	mov    %rsi,0xfffffffffffffff0(%rbp)
  406ca8:	89 55 ec             	mov    %edx,0xffffffffffffffec(%rbp)
  406cab:	8b 55 ec             	mov    0xffffffffffffffec(%rbp),%edx
  406cae:	48 8b 75 f0          	mov    0xfffffffffffffff0(%rbp),%rsi
  406cb2:	48 8b 7d f8          	mov    0xfffffffffffffff8(%rbp),%rdi
  406cb6:	b9 00 00 00 00       	mov    $0x0,%ecx
  406cbb:	e8 48 d0 ff ff       	callq  403d08 <_ZNK19ACE_SSL_SOCK_Stream6recv_nEPvii@plt>
  406cc0:	c9                   	leaveq 
  406cc1:	c3                   	retq   

0000000000406cc2 <_ZNK11ACE_SOCK_IO4sendEPKvmPK14ACE_Time_Value>:
  406cc2:	55                   	push   %rbp
  406cc3:	48 89 e5             	mov    %rsp,%rbp
  406cc6:	48 83 ec 20          	sub    $0x20,%rsp
  406cca:	48 89 7d f8          	mov    %rdi,0xfffffffffffffff8(%rbp)
  406cce:	48 89 75 f0          	mov    %rsi,0xfffffffffffffff0(%rbp)
  406cd2:	48 89 55 e8          	mov    %rdx,0xffffffffffffffe8(%rbp)
  406cd6:	48 89 4d e0          	mov    %rcx,0xffffffffffffffe0(%rbp)
  406cda:	48 8b 7d f8          	mov    0xfffffffffffffff8(%rbp),%rdi
  406cde:	e8 39 f2 ff ff       	callq  405f1c <_ZNK11ACE_IPC_SAP10get_handleEv>
  406ce3:	89 c7                	mov    %eax,%edi
  406ce5:	48 8b 4d e0          	mov    0xffffffffffffffe0(%rbp),%rcx
  406ce9:	48 8b 55 e8          	mov    0xffffffffffffffe8(%rbp),%rdx
  406ced:	48 8b 75 f0          	mov    0xfffffffffffffff0(%rbp),%rsi
  406cf1:	e8 d2 d3 ff ff       	callq  4040c8 <_ZN3ACE4sendEiPKvmPK14ACE_Time_Value@plt>
  406cf6:	c9                   	leaveq 
  406cf7:	c3                   	retq   

0000000000406cf8 <_ZNK19ACE_SSL_SOCK_Stream6send_iEPKvmi>:
  406cf8:	55                   	push   %rbp
  406cf9:	48 89 e5             	mov    %rsp,%rbp
  406cfc:	48 83 ec 40          	sub    $0x40,%rsp
  406d00:	48 89 7d e8          	mov    %rdi,0xffffffffffffffe8(%rbp)
  406d04:	48 89 75 e0          	mov    %rsi,0xffffffffffffffe0(%rbp)
  406d08:	48 89 55 d8          	mov    %rdx,0xffffffffffffffd8(%rbp)
  406d0c:	89 4d d4             	mov    %ecx,0xffffffffffffffd4(%rbp)
  406d0f:	83 7d d4 00          	cmpl   $0x0,0xffffffffffffffd4(%rbp)
  406d13:	74 18                	je     406d2d <_ZNK19ACE_SSL_SOCK_Stream6send_iEPKvmi+0x35>
  406d15:	e8 1e ce ff ff       	callq  403b38 <__errno_location@plt>
  406d1a:	c7 00 5f 00 00 00    	movl   $0x5f,(%rax)
  406d20:	48 c7 45 c8 ff ff ff 	movq   $0xffffffffffffffff,0xffffffffffffffc8(%rbp)
  406d27:	ff 
  406d28:	e9 bf 00 00 00       	jmpq   406dec <_ZNK19ACE_SSL_SOCK_Stream6send_iEPKvmi+0xf4>
  406d2d:	48 8b 45 d8          	mov    0xffffffffffffffd8(%rbp),%rax
  406d31:	89 c2                	mov    %eax,%edx
  406d33:	48 8b 75 e0          	mov    0xffffffffffffffe0(%rbp),%rsi
  406d37:	48 8b 45 e8          	mov    0xffffffffffffffe8(%rbp),%rax
  406d3b:	48 8b 78 08          	mov    0x8(%rax),%rdi
  406d3f:	e8 24 d6 ff ff       	callq  404368 <SSL_write@plt>
  406d44:	89 45 fc             	mov    %eax,0xfffffffffffffffc(%rbp)
  406d47:	48 8b 45 e8          	mov    0xffffffffffffffe8(%rbp),%rax
  406d4b:	48 8b 78 08          	mov    0x8(%rax),%rdi
  406d4f:	8b 75 fc             	mov    0xfffffffffffffffc(%rbp),%esi
  406d52:	e8 a1 ce ff ff       	callq  403bf8 <SSL_get_error@plt>
  406d57:	89 45 d0             	mov    %eax,0xffffffffffffffd0(%rbp)
  406d5a:	83 7d d0 06          	cmpl   $0x6,0xffffffffffffffd0(%rbp)
  406d5e:	77 74                	ja     406dd4 <_ZNK19ACE_SSL_SOCK_Stream6send_iEPKvmi+0xdc>
  406d60:	8b 45 d0             	mov    0xffffffffffffffd0(%rbp),%eax
  406d63:	48 8d 14 85 00 00 00 	lea    0x0(,%rax,4),%rdx
  406d6a:	00 
  406d6b:	48 8d 05 06 00 02 00 	lea    131078(%rip),%rax        # 426d78 <__dso_handle+0x90>
  406d72:	8b 04 02             	mov    (%rdx,%rax,1),%eax
  406d75:	48 63 d0             	movslq %eax,%rdx
  406d78:	48 8d 05 f9 ff 01 00 	lea    131065(%rip),%rax        # 426d78 <__dso_handle+0x90>
  406d7f:	48 8d 04 02          	lea    (%rdx,%rax,1),%rax
  406d83:	ff e0                	jmpq   *%rax
  406d85:	8b 45 fc             	mov    0xfffffffffffffffc(%rbp),%eax
  406d88:	48 98                	cltq   
  406d8a:	48 89 45 c8          	mov    %rax,0xffffffffffffffc8(%rbp)
  406d8e:	eb 5c                	jmp    406dec <_ZNK19ACE_SSL_SOCK_Stream6send_iEPKvmi+0xf4>
  406d90:	e8 a3 cd ff ff       	callq  403b38 <__errno_location@plt>
  406d95:	c7 00 0b 00 00 00    	movl   $0xb,(%rax)
  406d9b:	48 c7 45 c8 ff ff ff 	movq   $0xffffffffffffffff,0xffffffffffffffc8(%rbp)
  406da2:	ff 
  406da3:	eb 47                	jmp    406dec <_ZNK19ACE_SSL_SOCK_Stream6send_iEPKvmi+0xf4>
  406da5:	48 8b 45 e8          	mov    0xffffffffffffffe8(%rbp),%rax
  406da9:	48 8b 78 08          	mov    0x8(%rax),%rdi
  406dad:	e8 f6 d2 ff ff       	callq  4040a8 <SSL_shutdown@plt>
  406db2:	8b 45 fc             	mov    0xfffffffffffffffc(%rbp),%eax
  406db5:	48 98                	cltq   
  406db7:	48 89 45 c8          	mov    %rax,0xffffffffffffffc8(%rbp)
  406dbb:	eb 2f                	jmp    406dec <_ZNK19ACE_SSL_SOCK_Stream6send_iEPKvmi+0xf4>
  406dbd:	83 7d fc 00          	cmpl   $0x0,0xfffffffffffffffc(%rbp)
  406dc1:	75 0a                	jne    406dcd <_ZNK19ACE_SSL_SOCK_Stream6send_iEPKvmi+0xd5>
  406dc3:	48 c7 45 c8 00 00 00 	movq   $0x0,0xffffffffffffffc8(%rbp)
  406dca:	00 
  406dcb:	eb 1f                	jmp    406dec <_ZNK19ACE_SSL_SOCK_Stream6send_iEPKvmi+0xf4>
  406dcd:	e8 ec f6 ff ff       	callq  4064be <_ZN6ACE_OS23set_errno_to_last_errorEv>
  406dd2:	eb 10                	jmp    406de4 <_ZNK19ACE_SSL_SOCK_Stream6send_iEPKvmi+0xec>
  406dd4:	e8 5f cd ff ff       	callq  403b38 <__errno_location@plt>
  406dd9:	c7 00 00 00 00 00    	movl   $0x0,(%rax)
  406ddf:	e8 94 d4 ff ff       	callq  404278 <_ZN15ACE_SSL_Context12report_errorEv@plt>
  406de4:	48 c7 45 c8 ff ff ff 	movq   $0xffffffffffffffff,0xffffffffffffffc8(%rbp)
  406deb:	ff 
  406dec:	48 8b 45 c8          	mov    0xffffffffffffffc8(%rbp),%rax
  406df0:	c9                   	leaveq 
  406df1:	c3                   	retq   

0000000000406df2 <_ZNK19ACE_SSL_SOCK_Stream4sendEPKvm>:
  406df2:	55                   	push   %rbp
  406df3:	48 89 e5             	mov    %rsp,%rbp
  406df6:	48 83 ec 20          	sub    $0x20,%rsp
  406dfa:	48 89 7d f8          	mov    %rdi,0xfffffffffffffff8(%rbp)
  406dfe:	48 89 75 f0          	mov    %rsi,0xfffffffffffffff0(%rbp)
  406e02:	48 89 55 e8          	mov    %rdx,0xffffffffffffffe8(%rbp)
  406e06:	48 8b 55 e8          	mov    0xffffffffffffffe8(%rbp),%rdx
  406e0a:	48 8b 75 f0          	mov    0xfffffffffffffff0(%rbp),%rsi
  406e0e:	48 8b 7d f8          	mov    0xfffffffffffffff8(%rbp),%rdi
  406e12:	b9 00 00 00 00       	mov    $0x0,%ecx
  406e17:	e8 dc fe ff ff       	callq  406cf8 <_ZNK19ACE_SSL_SOCK_Stream6send_iEPKvmi>
  406e1c:	c9                   	leaveq 
  406e1d:	c3                   	retq   

0000000000406e1e <_ZN12ACE_Malloc_TI20ACE_MMAP_Memory_Pool17ACE_Process_Mutex20ACE_PI_Control_BlockE13shared_mallocEm>:
  406e1e:	55                   	push   %rbp
  406e1f:	48 89 e5             	mov    %rsp,%rbp
  406e22:	48 83 ec 50          	sub    $0x50,%rsp
  406e26:	48 89 7d c8          	mov    %rdi,0xffffffffffffffc8(%rbp)
  406e2a:	48 89 75 c0          	mov    %rsi,0xffffffffffffffc0(%rbp)
  406e2e:	48 8b 45 c8          	mov    0xffffffffffffffc8(%rbp),%rax
  406e32:	48 8b 00             	mov    (%rax),%rax
  406e35:	48 85 c0             	test   %rax,%rax
  406e38:	75 0d                	jne    406e47 <_ZN12ACE_Malloc_TI20ACE_MMAP_Memory_Pool17ACE_Process_Mutex20ACE_PI_Control_BlockE13shared_mallocEm+0x29>
  406e3a:	48 c7 45 b8 00 00 00 	movq   $0x0,0xffffffffffffffb8(%rbp)
  406e41:	00 
  406e42:	e9 c5 01 00 00       	jmpq   40700c <_ZN12ACE_Malloc_TI20ACE_MMAP_Memory_Pool17ACE_Process_Mutex20ACE_PI_Control_BlockE13shared_mallocEm+0x1ee>
  406e47:	48 8b 45 c0          	mov    0xffffffffffffffc0(%rbp),%rax
  406e4b:	48 83 c0 1f          	add    $0x1f,%rax
  406e4f:	48 c1 e8 05          	shr    $0x5,%rax
  406e53:	48 83 c0 01          	add    $0x1,%rax
  406e57:	48 89 45 e0          	mov    %rax,0xffffffffffffffe0(%rbp)
  406e5b:	48 c7 45 e8 00 00 00 	movq   $0x0,0xffffffffffffffe8(%rbp)
  406e62:	00 
  406e63:	48 c7 45 f0 00 00 00 	movq   $0x0,0xfffffffffffffff0(%rbp)
  406e6a:	00 
  406e6b:	48 8b 45 c8          	mov    0xffffffffffffffc8(%rbp),%rax
  406e6f:	48 8b 00             	mov    (%rax),%rax
  406e72:	48 8d 78 18          	lea    0x18(%rax),%rdi
  406e76:	e8 1d f3 ff ff       	callq  406198 <_ZNK23ACE_Based_Pointer_BasicIN20ACE_PI_Control_Block17ACE_Malloc_HeaderEEcvPS1_Ev>
  406e7b:	48 89 45 e8          	mov    %rax,0xffffffffffffffe8(%rbp)
  406e7f:	48 8b 7d e8          	mov    0xffffffffffffffe8(%rbp),%rdi
  406e83:	e8 10 f3 ff ff       	callq  406198 <_ZNK23ACE_Based_Pointer_BasicIN20ACE_PI_Control_Block17ACE_Malloc_HeaderEEcvPS1_Ev>
  406e88:	48 89 45 f0          	mov    %rax,0xfffffffffffffff0(%rbp)
  406e8c:	48 8b 45 f0          	mov    0xfffffffffffffff0(%rbp),%rax
  406e90:	48 8b 40 10          	mov    0x10(%rax),%rax
  406e94:	48 3b 45 e0          	cmp    0xffffffffffffffe0(%rbp),%rax
  406e98:	0f 82 8a 00 00 00    	jb     406f28 <_ZN12ACE_Malloc_TI20ACE_MMAP_Memory_Pool17ACE_Process_Mutex20ACE_PI_Control_BlockE13shared_mallocEm+0x10a>
  406e9e:	48 8b 45 f0          	mov    0xfffffffffffffff0(%rbp),%rax
  406ea2:	48 8b 40 10          	mov    0x10(%rax),%rax
  406ea6:	48 3b 45 e0          	cmp    0xffffffffffffffe0(%rbp),%rax
  406eaa:	75 0f                	jne    406ebb <_ZN12ACE_Malloc_TI20ACE_MMAP_Memory_Pool17ACE_Process_Mutex20ACE_PI_Control_BlockE13shared_mallocEm+0x9d>
  406eac:	48 8b 75 f0          	mov    0xfffffffffffffff0(%rbp),%rsi
  406eb0:	48 8b 7d e8          	mov    0xffffffffffffffe8(%rbp),%rdi
  406eb4:	e8 f7 f2 ff ff       	callq  4061b0 <_ZN17ACE_Based_PointerIN20ACE_PI_Control_Block17ACE_Malloc_HeaderEEaSERKS2_>
  406eb9:	eb 48                	jmp    406f03 <_ZN12ACE_Malloc_TI20ACE_MMAP_Memory_Pool17ACE_Process_Mutex20ACE_PI_Control_BlockE13shared_mallocEm+0xe5>
  406ebb:	48 8b 45 f0          	mov    0xfffffffffffffff0(%rbp),%rax
  406ebf:	48 8b 40 10          	mov    0x10(%rax),%rax
  406ec3:	48 89 c2             	mov    %rax,%rdx
  406ec6:	48 2b 55 e0          	sub    0xffffffffffffffe0(%rbp),%rdx
  406eca:	48 8b 45 f0          	mov    0xfffffffffffffff0(%rbp),%rax
  406ece:	48 89 50 10          	mov    %rdx,0x10(%rax)
  406ed2:	48 8b 45 f0          	mov    0xfffffffffffffff0(%rbp),%rax
  406ed6:	48 8b 40 10          	mov    0x10(%rax),%rax
  406eda:	48 c1 e0 05          	shl    $0x5,%rax
  406ede:	48 01 45 f0          	add    %rax,0xfffffffffffffff0(%rbp)
  406ee2:	48 8b 45 c8          	mov    0xffffffffffffffc8(%rbp),%rax
  406ee6:	48 8b 10             	mov    (%rax),%rdx
  406ee9:	48 8b 7d f0          	mov    0xfffffffffffffff0(%rbp),%rdi
  406eed:	be 00 00 00 00       	mov    $0x0,%esi
  406ef2:	e8 d1 f1 ff ff       	callq  4060c8 <_ZN20ACE_PI_Control_Block17ACE_Malloc_Header8init_ptrEP17ACE_Based_PointerIS0_EPS0_Pv>
  406ef7:	48 8b 55 f0          	mov    0xfffffffffffffff0(%rbp),%rdx
  406efb:	48 8b 45 e0          	mov    0xffffffffffffffe0(%rbp),%rax
  406eff:	48 89 42 10          	mov    %rax,0x10(%rdx)
  406f03:	48 8b 45 c8          	mov    0xffffffffffffffc8(%rbp),%rax
  406f07:	48 8b 00             	mov    (%rax),%rax
  406f0a:	48 8d 78 18          	lea    0x18(%rax),%rdi
  406f0e:	48 8b 75 e8          	mov    0xffffffffffffffe8(%rbp),%rsi
  406f12:	e8 03 f1 ff ff       	callq  40601a <_ZN17ACE_Based_PointerIN20ACE_PI_Control_Block17ACE_Malloc_HeaderEEaSEPS1_>
  406f17:	48 8b 45 f0          	mov    0xfffffffffffffff0(%rbp),%rax
  406f1b:	48 83 c0 20          	add    $0x20,%rax
  406f1f:	48 89 45 b8          	mov    %rax,0xffffffffffffffb8(%rbp)
  406f23:	e9 e4 00 00 00       	jmpq   40700c <_ZN12ACE_Malloc_TI20ACE_MMAP_Memory_Pool17ACE_Process_Mutex20ACE_PI_Control_BlockE13shared_mallocEm+0x1ee>
  406f28:	48 8b 45 c8          	mov    0xffffffffffffffc8(%rbp),%rax
  406f2c:	48 8b 00             	mov    (%rax),%rax
  406f2f:	48 8d 78 18          	lea    0x18(%rax),%rdi
  406f33:	e8 60 f2 ff ff       	callq  406198 <_ZNK23ACE_Based_Pointer_BasicIN20ACE_PI_Control_Block17ACE_Malloc_HeaderEEcvPS1_Ev>
  406f38:	48 3b 45 f0          	cmp    0xfffffffffffffff0(%rbp),%rax
  406f3c:	0f 94 c0             	sete   %al
  406f3f:	84 c0                	test   %al,%al
  406f41:	0f 84 ab 00 00 00    	je     406ff2 <_ZN12ACE_Malloc_TI20ACE_MMAP_Memory_Pool17ACE_Process_Mutex20ACE_PI_Control_BlockE13shared_mallocEm+0x1d4>
  406f47:	48 c7 45 d8 00 00 00 	movq   $0x0,0xffffffffffffffd8(%rbp)
  406f4e:	00 
  406f4f:	48 8b 45 e0          	mov    0xffffffffffffffe0(%rbp),%rax
  406f53:	48 89 c6             	mov    %rax,%rsi
  406f56:	48 c1 e6 05          	shl    $0x5,%rsi
  406f5a:	48 8b 7d c8          	mov    0xffffffffffffffc8(%rbp),%rdi
  406f5e:	48 83 c7 08          	add    $0x8,%rdi
  406f62:	48 8d 55 d8          	lea    0xffffffffffffffd8(%rbp),%rdx
  406f66:	e8 2d cc ff ff       	callq  403b98 <_ZN20ACE_MMAP_Memory_Pool7acquireEmRm@plt>
  406f6b:	48 89 45 f0          	mov    %rax,0xfffffffffffffff0(%rbp)
  406f6f:	48 8b 7d c8          	mov    0xffffffffffffffc8(%rbp),%rdi
  406f73:	48 83 c7 08          	add    $0x8,%rdi
  406f77:	e8 ac d0 ff ff       	callq  404028 <_ZNK20ACE_MMAP_Memory_Pool9base_addrEv@plt>
  406f7c:	48 89 45 f8          	mov    %rax,0xfffffffffffffff8(%rbp)
  406f80:	48 83 7d f8 00       	cmpq   $0x0,0xfffffffffffffff8(%rbp)
  406f85:	74 0b                	je     406f92 <_ZN12ACE_Malloc_TI20ACE_MMAP_Memory_Pool17ACE_Process_Mutex20ACE_PI_Control_BlockE13shared_mallocEm+0x174>
  406f87:	48 8b 55 f8          	mov    0xfffffffffffffff8(%rbp),%rdx
  406f8b:	48 8b 45 c8          	mov    0xffffffffffffffc8(%rbp),%rax
  406f8f:	48 89 10             	mov    %rdx,(%rax)
  406f92:	48 83 7d f0 00       	cmpq   $0x0,0xfffffffffffffff0(%rbp)
  406f97:	74 4f                	je     406fe8 <_ZN12ACE_Malloc_TI20ACE_MMAP_Memory_Pool17ACE_Process_Mutex20ACE_PI_Control_BlockE13shared_mallocEm+0x1ca>
  406f99:	48 8b 45 c8          	mov    0xffffffffffffffc8(%rbp),%rax
  406f9d:	48 8b 10             	mov    (%rax),%rdx
  406fa0:	48 8b 7d f0          	mov    0xfffffffffffffff0(%rbp),%rdi
  406fa4:	be 00 00 00 00       	mov    $0x0,%esi
  406fa9:	e8 1a f1 ff ff       	callq  4060c8 <_ZN20ACE_PI_Control_Block17ACE_Malloc_Header8init_ptrEP17ACE_Based_PointerIS0_EPS0_Pv>
  406fae:	48 8b 45 d8          	mov    0xffffffffffffffd8(%rbp),%rax
  406fb2:	48 89 c2             	mov    %rax,%rdx
  406fb5:	48 c1 ea 05          	shr    $0x5,%rdx
  406fb9:	48 8b 45 f0          	mov    0xfffffffffffffff0(%rbp),%rax
  406fbd:	48 89 50 10          	mov    %rdx,0x10(%rax)
  406fc1:	48 8b 75 f0          	mov    0xfffffffffffffff0(%rbp),%rsi
  406fc5:	48 83 c6 20          	add    $0x20,%rsi
  406fc9:	48 8b 7d c8          	mov    0xffffffffffffffc8(%rbp),%rdi
  406fcd:	e8 06 f2 ff ff       	callq  4061d8 <_ZN12ACE_Malloc_TI20ACE_MMAP_Memory_Pool17ACE_Process_Mutex20ACE_PI_Control_BlockE11shared_freeEPv>
  406fd2:	48 8b 45 c8          	mov    0xffffffffffffffc8(%rbp),%rax
  406fd6:	48 8b 00             	mov    (%rax),%rax
  406fd9:	48 8d 78 18          	lea    0x18(%rax),%rdi
  406fdd:	e8 b6 f1 ff ff       	callq  406198 <_ZNK23ACE_Based_Pointer_BasicIN20ACE_PI_Control_Block17ACE_Malloc_HeaderEEcvPS1_Ev>
  406fe2:	48 89 45 f0          	mov    %rax,0xfffffffffffffff0(%rbp)
  406fe6:	eb 0a                	jmp    406ff2 <_ZN12ACE_Malloc_TI20ACE_MMAP_Memory_Pool17ACE_Process_Mutex20ACE_PI_Control_BlockE13shared_mallocEm+0x1d4>
  406fe8:	48 c7 45 b8 00 00 00 	movq   $0x0,0xffffffffffffffb8(%rbp)
  406fef:	00 
  406ff0:	eb 1a                	jmp    40700c <_ZN12ACE_Malloc_TI20ACE_MMAP_Memory_Pool17ACE_Process_Mutex20ACE_PI_Control_BlockE13shared_mallocEm+0x1ee>
  406ff2:	48 8b 45 f0          	mov    0xfffffffffffffff0(%rbp),%rax
  406ff6:	48 89 45 e8          	mov    %rax,0xffffffffffffffe8(%rbp)
  406ffa:	48 8b 7d f0          	mov    0xfffffffffffffff0(%rbp),%rdi
  406ffe:	e8 95 f1 ff ff       	callq  406198 <_ZNK23ACE_Based_Pointer_BasicIN20ACE_PI_Control_Block17ACE_Malloc_HeaderEEcvPS1_Ev>
  407003:	48 89 45 f0          	mov    %rax,0xfffffffffffffff0(%rbp)
  407007:	e9 80 fe ff ff       	jmpq   406e8c <_ZN12ACE_Malloc_TI20ACE_MMAP_Memory_Pool17ACE_Process_Mutex20ACE_PI_Control_BlockE13shared_mallocEm+0x6e>
  40700c:	48 8b 45 b8          	mov    0xffffffffffffffb8(%rbp),%rax
  407010:	c9                   	leaveq 
  407011:	c3                   	retq   

0000000000407012 <_ZN12ACE_Malloc_TI20ACE_MMAP_Memory_Pool17ACE_Process_Mutex20ACE_PI_Control_BlockE6mallocEm>:
  407012:	55                   	push   %rbp
  407013:	48 89 e5             	mov    %rsp,%rbp
  407016:	53                   	push   %rbx
  407017:	48 83 ec 38          	sub    $0x38,%rsp
  40701b:	48 89 7d d8          	mov    %rdi,0xffffffffffffffd8(%rbp)
  40701f:	48 89 75 d0          	mov    %rsi,0xffffffffffffffd0(%rbp)
  407023:	48 8b 45 d8          	mov    0xffffffffffffffd8(%rbp),%rax
  407027:	48 8b b0 98 20 00 00 	mov    0x2098(%rax),%rsi
  40702e:	48 8d 7d e0          	lea    0xffffffffffffffe0(%rbp),%rdi
  407032:	e8 3b f7 ff ff       	callq  406772 <_ZN9ACE_GuardI17ACE_Process_MutexEC1ERS0_>
  407037:	48 8d 7d e0          	lea    0xffffffffffffffe0(%rbp),%rdi
  40703b:	e8 d6 f0 ff ff       	callq  406116 <_ZNK9ACE_GuardI17ACE_Process_MutexE6lockedEv>
  407040:	85 c0                	test   %eax,%eax
  407042:	0f 95 c0             	setne  %al
  407045:	83 f0 01             	xor    $0x1,%eax
  407048:	84 c0                	test   %al,%al
  40704a:	74 0a                	je     407056 <_ZN12ACE_Malloc_TI20ACE_MMAP_Memory_Pool17ACE_Process_Mutex20ACE_PI_Control_BlockE6mallocEm+0x44>
  40704c:	48 c7 45 c8 00 00 00 	movq   $0x0,0xffffffffffffffc8(%rbp)
  407053:	00 
  407054:	eb 31                	jmp    407087 <_ZN12ACE_Malloc_TI20ACE_MMAP_Memory_Pool17ACE_Process_Mutex20ACE_PI_Control_BlockE6mallocEm+0x75>
  407056:	48 8b 75 d0          	mov    0xffffffffffffffd0(%rbp),%rsi
  40705a:	48 8b 7d d8          	mov    0xffffffffffffffd8(%rbp),%rdi
  40705e:	e8 bb fd ff ff       	callq  406e1e <_ZN12ACE_Malloc_TI20ACE_MMAP_Memory_Pool17ACE_Process_Mutex20ACE_PI_Control_BlockE13shared_mallocEm>
  407063:	48 89 45 c8          	mov    %rax,0xffffffffffffffc8(%rbp)
  407067:	eb 1e                	jmp    407087 <_ZN12ACE_Malloc_TI20ACE_MMAP_Memory_Pool17ACE_Process_Mutex20ACE_PI_Control_BlockE6mallocEm+0x75>
  407069:	48 89 45 c0          	mov    %rax,0xffffffffffffffc0(%rbp)
  40706d:	48 8b 5d c0          	mov    0xffffffffffffffc0(%rbp),%rbx
  407071:	48 8d 7d e0          	lea    0xffffffffffffffe0(%rbp),%rdi
  407075:	e8 ea f7 ff ff       	callq  406864 <_ZN9ACE_GuardI17ACE_Process_MutexED1Ev>
  40707a:	48 89 5d c0          	mov    %rbx,0xffffffffffffffc0(%rbp)
  40707e:	48 8b 7d c0          	mov    0xffffffffffffffc0(%rbp),%rdi
  407082:	e8 81 d2 ff ff       	callq  404308 <_Unwind_Resume@plt>
  407087:	48 8d 7d e0          	lea    0xffffffffffffffe0(%rbp),%rdi
  40708b:	e8 d4 f7 ff ff       	callq  406864 <_ZN9ACE_GuardI17ACE_Process_MutexED1Ev>
  407090:	48 8b 45 c8          	mov    0xffffffffffffffc8(%rbp),%rax
  407094:	48 83 c4 38          	add    $0x38,%rsp
  407098:	5b                   	pop    %rbx
  407099:	c9                   	leaveq 
  40709a:	c3                   	retq   
  40709b:	90                   	nop    

000000000040709c <_ZN23ACE_Based_Pointer_BasicI16ACE_MEM_SAP_NodeEC2EPS0_>:
  40709c:	55                   	push   %rbp
  40709d:	48 89 e5             	mov    %rsp,%rbp
  4070a0:	48 83 ec 20          	sub    $0x20,%rsp
  4070a4:	48 89 7d e8          	mov    %rdi,0xffffffffffffffe8(%rbp)
  4070a8:	48 89 75 e0          	mov    %rsi,0xffffffffffffffe0(%rbp)
  4070ac:	48 8b 45 e8          	mov    0xffffffffffffffe8(%rbp),%rax
  4070b0:	48 c7 00 00 00 00 00 	movq   $0x0,(%rax)
  4070b7:	48 8b 45 e8          	mov    0xffffffffffffffe8(%rbp),%rax
  4070bb:	48 c7 40 08 00 00 00 	movq   $0x0,0x8(%rax)
  4070c2:	00 
  4070c3:	48 83 7d e0 00       	cmpq   $0x0,0xffffffffffffffe0(%rbp)
  4070c8:	75 0d                	jne    4070d7 <_ZN23ACE_Based_Pointer_BasicI16ACE_MEM_SAP_NodeEC2EPS0_+0x3b>
  4070ca:	48 8b 45 e8          	mov    0xffffffffffffffe8(%rbp),%rax
  4070ce:	48 c7 00 ff ff ff ff 	movq   $0xffffffffffffffff,(%rax)
  4070d5:	eb 42                	jmp    407119 <_ZN23ACE_Based_Pointer_BasicI16ACE_MEM_SAP_NodeEC2EPS0_+0x7d>
  4070d7:	48 c7 45 f8 00 00 00 	movq   $0x0,0xfffffffffffffff8(%rbp)
  4070de:	00 
  4070df:	e8 94 ca ff ff       	callq  403b78 <_ZN13ACE_SingletonI28ACE_Based_Pointer_Repository19ACE_RW_Thread_MutexE8instanceEv@plt>
  4070e4:	48 89 c7             	mov    %rax,%rdi
  4070e7:	48 8d 55 f8          	lea    0xfffffffffffffff8(%rbp),%rdx
  4070eb:	48 8b 75 e8          	mov    0xffffffffffffffe8(%rbp),%rsi
  4070ef:	e8 e4 cf ff ff       	callq  4040d8 <_ZN28ACE_Based_Pointer_Repository4findEPvRS0_@plt>
  4070f4:	48 8b 55 e8          	mov    0xffffffffffffffe8(%rbp),%rdx
  4070f8:	48 8b 45 f8          	mov    0xfffffffffffffff8(%rbp),%rax
  4070fc:	48 29 c2             	sub    %rax,%rdx
  4070ff:	48 8b 45 e8          	mov    0xffffffffffffffe8(%rbp),%rax
  407103:	48 89 50 08          	mov    %rdx,0x8(%rax)
  407107:	48 8b 55 e0          	mov    0xffffffffffffffe0(%rbp),%rdx
  40710b:	48 8b 45 f8          	mov    0xfffffffffffffff8(%rbp),%rax
  40710f:	48 29 c2             	sub    %rax,%rdx
  407112:	48 8b 45 e8          	mov    0xffffffffffffffe8(%rbp),%rax
  407116:	48 89 10             	mov    %rdx,(%rax)
  407119:	c9                   	leaveq 
  40711a:	c3                   	retq   
  40711b:	90                   	nop    

000000000040711c <_ZN17ACE_Based_PointerI16ACE_MEM_SAP_NodeEC1EPS0_>:
  40711c:	55                   	push   %rbp
  40711d:	48 89 e5             	mov    %rsp,%rbp
  407120:	48 83 ec 10          	sub    $0x10,%rsp
  407124:	48 89 7d f8          	mov    %rdi,0xfffffffffffffff8(%rbp)
  407128:	48 89 75 f0          	mov    %rsi,0xfffffffffffffff0(%rbp)
  40712c:	48 8b 7d f8          	mov    0xfffffffffffffff8(%rbp),%rdi
  407130:	48 8b 75 f0          	mov    0xfffffffffffffff0(%rbp),%rsi
  407134:	e8 63 ff ff ff       	callq  40709c <_ZN23ACE_Based_Pointer_BasicI16ACE_MEM_SAP_NodeEC2EPS0_>
  407139:	c9                   	leaveq 
  40713a:	c3                   	retq   
  40713b:	90                   	nop    

000000000040713c <_ZN16ACE_MEM_SAP_NodeC1Em>:
  40713c:	55                   	push   %rbp
  40713d:	48 89 e5             	mov    %rsp,%rbp
  407140:	48 83 ec 10          	sub    $0x10,%rsp
  407144:	48 89 7d f8          	mov    %rdi,0xfffffffffffffff8(%rbp)
  407148:	48 89 75 f0          	mov    %rsi,0xfffffffffffffff0(%rbp)
  40714c:	48 8b 55 f8          	mov    0xfffffffffffffff8(%rbp),%rdx
  407150:	48 8b 45 f0          	mov    0xfffffffffffffff0(%rbp),%rax
  407154:	48 89 02             	mov    %rax,(%rdx)
  407157:	48 8b 45 f8          	mov    0xfffffffffffffff8(%rbp),%rax
  40715b:	48 c7 40 08 00 00 00 	movq   $0x0,0x8(%rax)
  407162:	00 
  407163:	48 8b 7d f8          	mov    0xfffffffffffffff8(%rbp),%rdi
  407167:	48 83 c7 10          	add    $0x10,%rdi
  40716b:	be 00 00 00 00       	mov    $0x0,%esi
  407170:	e8 a7 ff ff ff       	callq  40711c <_ZN17ACE_Based_PointerI16ACE_MEM_SAP_NodeEC1EPS0_>
  407175:	c9                   	leaveq 
  407176:	c3                   	retq   
  407177:	90                   	nop    

0000000000407178 <_ZN11ACE_MEM_SAP14acquire_bufferEl>:
  407178:	55                   	push   %rbp
  407179:	48 89 e5             	mov    %rsp,%rbp
  40717c:	53                   	push   %rbx
  40717d:	48 83 ec 38          	sub    $0x38,%rsp
  407181:	48 89 7d e0          	mov    %rdi,0xffffffffffffffe0(%rbp)
  407185:	48 89 75 d8          	mov    %rsi,0xffffffffffffffd8(%rbp)
  407189:	48 8b 45 e0          	mov    0xffffffffffffffe0(%rbp),%rax
  40718d:	48 8b 40 10          	mov    0x10(%rax),%rax
  407191:	48 85 c0             	test   %rax,%rax
  407194:	75 0d                	jne    4071a3 <_ZN11ACE_MEM_SAP14acquire_bufferEl+0x2b>
  407196:	48 c7 45 c8 00 00 00 	movq   $0x0,0xffffffffffffffc8(%rbp)
  40719d:	00 
  40719e:	e9 8f 00 00 00       	jmpq   407232 <_ZN11ACE_MEM_SAP14acquire_bufferEl+0xba>
  4071a3:	48 c7 45 f0 00 00 00 	movq   $0x0,0xfffffffffffffff0(%rbp)
  4071aa:	00 
  4071ab:	48 8b 45 d8          	mov    0xffffffffffffffd8(%rbp),%rax
  4071af:	48 8d 70 20          	lea    0x20(%rax),%rsi
  4071b3:	48 8b 45 e0          	mov    0xffffffffffffffe0(%rbp),%rax
  4071b7:	48 8b 78 10          	mov    0x10(%rax),%rdi
  4071bb:	e8 52 fe ff ff       	callq  407012 <_ZN12ACE_Malloc_TI20ACE_MMAP_Memory_Pool17ACE_Process_Mutex20ACE_PI_Control_BlockE6mallocEm>
  4071c0:	48 89 45 f0          	mov    %rax,0xfffffffffffffff0(%rbp)
  4071c4:	48 83 7d f0 00       	cmpq   $0x0,0xfffffffffffffff0(%rbp)
  4071c9:	75 15                	jne    4071e0 <_ZN11ACE_MEM_SAP14acquire_bufferEl+0x68>
  4071cb:	e8 68 c9 ff ff       	callq  403b38 <__errno_location@plt>
  4071d0:	c7 00 0c 00 00 00    	movl   $0xc,(%rax)
  4071d6:	48 c7 45 c8 00 00 00 	movq   $0x0,0xffffffffffffffc8(%rbp)
  4071dd:	00 
  4071de:	eb 52                	jmp    407232 <_ZN11ACE_MEM_SAP14acquire_bufferEl+0xba>
  4071e0:	48 8b 75 f0          	mov    0xfffffffffffffff0(%rbp),%rsi
  4071e4:	bf 20 00 00 00       	mov    $0x20,%edi
  4071e9:	e8 04 ed ff ff       	callq  405ef2 <_ZnwmPv>
  4071ee:	48 89 45 d0          	mov    %rax,0xffffffffffffffd0(%rbp)
  4071f2:	48 83 7d d0 00       	cmpq   $0x0,0xffffffffffffffd0(%rbp)
  4071f7:	74 31                	je     40722a <_ZN11ACE_MEM_SAP14acquire_bufferEl+0xb2>
  4071f9:	48 8b 75 d8          	mov    0xffffffffffffffd8(%rbp),%rsi
  4071fd:	48 8b 7d d0          	mov    0xffffffffffffffd0(%rbp),%rdi
  407201:	e8 36 ff ff ff       	callq  40713c <_ZN16ACE_MEM_SAP_NodeC1Em>
  407206:	eb 22                	jmp    40722a <_ZN11ACE_MEM_SAP14acquire_bufferEl+0xb2>
  407208:	48 89 45 c0          	mov    %rax,0xffffffffffffffc0(%rbp)
  40720c:	48 8b 5d c0          	mov    0xffffffffffffffc0(%rbp),%rbx
  407210:	48 8b 75 f0          	mov    0xfffffffffffffff0(%rbp),%rsi
  407214:	48 8b 7d d0          	mov    0xffffffffffffffd0(%rbp),%rdi
  407218:	e8 e7 ec ff ff       	callq  405f04 <_ZdlPvS_>
  40721d:	48 89 5d c0          	mov    %rbx,0xffffffffffffffc0(%rbp)
  407221:	48 8b 7d c0          	mov    0xffffffffffffffc0(%rbp),%rdi
  407225:	e8 de d0 ff ff       	callq  404308 <_Unwind_Resume@plt>
  40722a:	48 8b 45 f0          	mov    0xfffffffffffffff0(%rbp),%rax
  40722e:	48 89 45 c8          	mov    %rax,0xffffffffffffffc8(%rbp)
  407232:	48 8b 45 c8          	mov    0xffffffffffffffc8(%rbp),%rax
  407236:	48 83 c4 38          	add    $0x38,%rsp
  40723a:	5b                   	pop    %rbx
  40723b:	c9                   	leaveq 
  40723c:	c3                   	retq   
  40723d:	90                   	nop    

000000000040723e <_ZN10ACE_MEM_IO4sendEPKvmiPK14ACE_Time_Value>:
  40723e:	55                   	push   %rbp
  40723f:	48 89 e5             	mov    %rsp,%rbp
  407242:	48 83 ec 40          	sub    $0x40,%rsp
  407246:	48 89 7d e8          	mov    %rdi,0xffffffffffffffe8(%rbp)
  40724a:	48 89 75 e0          	mov    %rsi,0xffffffffffffffe0(%rbp)
  40724e:	48 89 55 d8          	mov    %rdx,0xffffffffffffffd8(%rbp)
  407252:	89 4d d4             	mov    %ecx,0xffffffffffffffd4(%rbp)
  407255:	4c 89 45 c8          	mov    %r8,0xffffffffffffffc8(%rbp)
  407259:	48 8b 45 e8          	mov    0xffffffffffffffe8(%rbp),%rax
  40725d:	48 8b 40 08          	mov    0x8(%rax),%rax
  407261:	48 85 c0             	test   %rax,%rax
  407264:	75 0a                	jne    407270 <_ZN10ACE_MEM_IO4sendEPKvmiPK14ACE_Time_Value+0x32>
  407266:	48 c7 45 c0 00 00 00 	movq   $0x0,0xffffffffffffffc0(%rbp)
  40726d:	00 
  40726e:	eb 77                	jmp    4072e7 <_ZN10ACE_MEM_IO4sendEPKvmiPK14ACE_Time_Value+0xa9>
  407270:	48 8b 75 d8          	mov    0xffffffffffffffd8(%rbp),%rsi
  407274:	48 8b 45 e8          	mov    0xffffffffffffffe8(%rbp),%rax
  407278:	48 8b 78 08          	mov    0x8(%rax),%rdi
  40727c:	e8 f7 fe ff ff       	callq  407178 <_ZN11ACE_MEM_SAP14acquire_bufferEl>
  407281:	48 89 45 f8          	mov    %rax,0xfffffffffffffff8(%rbp)
  407285:	48 83 7d f8 00       	cmpq   $0x0,0xfffffffffffffff8(%rbp)
  40728a:	75 0a                	jne    407296 <_ZN10ACE_MEM_IO4sendEPKvmiPK14ACE_Time_Value+0x58>
  40728c:	48 c7 45 c0 ff ff ff 	movq   $0xffffffffffffffff,0xffffffffffffffc0(%rbp)
  407293:	ff 
  407294:	eb 51                	jmp    4072e7 <_ZN10ACE_MEM_IO4sendEPKvmiPK14ACE_Time_Value+0xa9>
  407296:	48 8b 7d f8          	mov    0xfffffffffffffff8(%rbp),%rdi
  40729a:	e8 21 ed ff ff       	callq  405fc0 <_ZN16ACE_MEM_SAP_Node4dataEv>
  40729f:	48 89 c7             	mov    %rax,%rdi
  4072a2:	48 8b 55 d8          	mov    0xffffffffffffffd8(%rbp),%rdx
  4072a6:	48 8b 75 e0          	mov    0xffffffffffffffe0(%rbp),%rsi
  4072aa:	e8 59 f7 ff ff       	callq  406a08 <_ZN6ACE_OS6memcpyEPvPKvm>
  4072af:	48 8b 55 f8          	mov    0xfffffffffffffff8(%rbp),%rdx
  4072b3:	48 8b 45 d8          	mov    0xffffffffffffffd8(%rbp),%rax
  4072b7:	48 89 42 08          	mov    %rax,0x8(%rdx)
  4072bb:	48 8b 45 e8          	mov    0xffffffffffffffe8(%rbp),%rax
  4072bf:	48 8b 40 08          	mov    0x8(%rax),%rax
  4072c3:	48 8b 00             	mov    (%rax),%rax
  4072c6:	48 83 c0 28          	add    $0x28,%rax
  4072ca:	4c 8b 00             	mov    (%rax),%r8
  4072cd:	48 8b 45 e8          	mov    0xffffffffffffffe8(%rbp),%rax
  4072d1:	48 8b 78 08          	mov    0x8(%rax),%rdi
  4072d5:	48 8b 4d c8          	mov    0xffffffffffffffc8(%rbp),%rcx
  4072d9:	8b 55 d4             	mov    0xffffffffffffffd4(%rbp),%edx
  4072dc:	48 8b 75 f8          	mov    0xfffffffffffffff8(%rbp),%rsi
  4072e0:	41 ff d0             	callq  *%r8
  4072e3:	48 89 45 c0          	mov    %rax,0xffffffffffffffc0(%rbp)
  4072e7:	48 8b 45 c0          	mov    0xffffffffffffffc0(%rbp),%rax
  4072eb:	c9                   	leaveq 
  4072ec:	c3                   	retq   
  4072ed:	90                   	nop    

00000000004072ee <_ZN10ACE_MEM_IO4sendEPKvmi>:
  4072ee:	55                   	push   %rbp
  4072ef:	48 89 e5             	mov    %rsp,%rbp
  4072f2:	48 83 ec 20          	sub    $0x20,%rsp
  4072f6:	48 89 7d f8          	mov    %rdi,0xfffffffffffffff8(%rbp)
  4072fa:	48 89 75 f0          	mov    %rsi,0xfffffffffffffff0(%rbp)
  4072fe:	48 89 55 e8          	mov    %rdx,0xffffffffffffffe8(%rbp)
  407302:	89 4d e4             	mov    %ecx,0xffffffffffffffe4(%rbp)
  407305:	8b 4d e4             	mov    0xffffffffffffffe4(%rbp),%ecx
  407308:	48 8b 55 e8          	mov    0xffffffffffffffe8(%rbp),%rdx
  40730c:	48 8b 75 f0          	mov    0xfffffffffffffff0(%rbp),%rsi
  407310:	48 8b 7d f8          	mov    0xfffffffffffffff8(%rbp),%rdi
  407314:	41 b8 00 00 00 00    	mov    $0x0,%r8d
  40731a:	e8 1f ff ff ff       	callq  40723e <_ZN10ACE_MEM_IO4sendEPKvmiPK14ACE_Time_Value>
  40731f:	c9                   	leaveq 
  407320:	c3                   	retq   
  407321:	90                   	nop    

0000000000407322 <_ZN10ACE_MEM_IO4sendEPKvm>:
  407322:	55                   	push   %rbp
  407323:	48 89 e5             	mov    %rsp,%rbp
  407326:	48 83 ec 20          	sub    $0x20,%rsp
  40732a:	48 89 7d f8          	mov    %rdi,0xfffffffffffffff8(%rbp)
  40732e:	48 89 75 f0          	mov    %rsi,0xfffffffffffffff0(%rbp)
  407332:	48 89 55 e8          	mov    %rdx,0xffffffffffffffe8(%rbp)
  407336:	48 8b 55 e8          	mov    0xffffffffffffffe8(%rbp),%rdx
  40733a:	48 8b 75 f0          	mov    0xfffffffffffffff0(%rbp),%rsi
  40733e:	48 8b 7d f8          	mov    0xfffffffffffffff8(%rbp),%rdi
  407342:	b9 00 00 00 00       	mov    $0x0,%ecx
  407347:	e8 a2 ff ff ff       	callq  4072ee <_ZN10ACE_MEM_IO4sendEPKvmi>
  40734c:	c9                   	leaveq 
  40734d:	c3                   	retq   

000000000040734e <_ZN14ACE_MEM_Stream6send_nEPKvm>:
  40734e:	55                   	push   %rbp
  40734f:	48 89 e5             	mov    %rsp,%rbp
  407352:	48 83 ec 20          	sub    $0x20,%rsp
  407356:	48 89 7d f8          	mov    %rdi,0xfffffffffffffff8(%rbp)
  40735a:	48 89 75 f0          	mov    %rsi,0xfffffffffffffff0(%rbp)
  40735e:	48 89 55 e8          	mov    %rdx,0xffffffffffffffe8(%rbp)
  407362:	48 8b 7d f8          	mov    0xfffffffffffffff8(%rbp),%rdi
  407366:	48 8b 55 e8          	mov    0xffffffffffffffe8(%rbp),%rdx
  40736a:	48 8b 75 f0          	mov    0xfffffffffffffff0(%rbp),%rsi
  40736e:	e8 af ff ff ff       	callq  407322 <_ZN10ACE_MEM_IO4sendEPKvm>
  407373:	c9                   	leaveq 
  407374:	c3                   	retq   
  407375:	90                   	nop    

0000000000407376 <_ZN3ACE6send_nEiPKvmPK14ACE_Time_ValuePm>:
  407376:	55                   	push   %rbp
  407377:	48 89 e5             	mov    %rsp,%rbp
  40737a:	48 83 ec 30          	sub    $0x30,%rsp
  40737e:	89 7d fc             	mov    %edi,0xfffffffffffffffc(%rbp)
  407381:	48 89 75 f0          	mov    %rsi,0xfffffffffffffff0(%rbp)
  407385:	48 89 55 e8          	mov    %rdx,0xffffffffffffffe8(%rbp)
  407389:	48 89 4d e0          	mov    %rcx,0xffffffffffffffe0(%rbp)
  40738d:	4c 89 45 d8          	mov    %r8,0xffffffffffffffd8(%rbp)
  407391:	48 83 7d e0 00       	cmpq   $0x0,0xffffffffffffffe0(%rbp)
  407396:	75 1a                	jne    4073b2 <_ZN3ACE6send_nEiPKvmPK14ACE_Time_ValuePm+0x3c>
  407398:	48 8b 4d d8          	mov    0xffffffffffffffd8(%rbp),%rcx
  40739c:	48 8b 55 e8          	mov    0xffffffffffffffe8(%rbp),%rdx
  4073a0:	48 8b 75 f0          	mov    0xfffffffffffffff0(%rbp),%rsi
  4073a4:	8b 7d fc             	mov    0xfffffffffffffffc(%rbp),%edi
  4073a7:	e8 5c ca ff ff       	callq  403e08 <_ZN3ACE8send_n_iEiPKvmPm@plt>
  4073ac:	48 89 45 d0          	mov    %rax,0xffffffffffffffd0(%rbp)
  4073b0:	eb 1f                	jmp    4073d1 <_ZN3ACE6send_nEiPKvmPK14ACE_Time_ValuePm+0x5b>
  4073b2:	48 8b 45 d8          	mov    0xffffffffffffffd8(%rbp),%rax
  4073b6:	48 8b 4d e0          	mov    0xffffffffffffffe0(%rbp),%rcx
  4073ba:	48 8b 55 e8          	mov    0xffffffffffffffe8(%rbp),%rdx
  4073be:	48 8b 75 f0          	mov    0xfffffffffffffff0(%rbp),%rsi
  4073c2:	8b 7d fc             	mov    0xfffffffffffffffc(%rbp),%edi
  4073c5:	49 89 c0             	mov    %rax,%r8
  4073c8:	e8 7b c8 ff ff       	callq  403c48 <_ZN3ACE8send_n_iEiPKvmPK14ACE_Time_ValuePm@plt>
  4073cd:	48 89 45 d0          	mov    %rax,0xffffffffffffffd0(%rbp)
  4073d1:	48 8b 45 d0          	mov    0xffffffffffffffd0(%rbp),%rax
  4073d5:	c9                   	leaveq 
  4073d6:	c3                   	retq   
  4073d7:	90                   	nop    

00000000004073d8 <_ZNK15ACE_SOCK_Stream6send_nEPKvmPK14ACE_Time_ValuePm>:
  4073d8:	55                   	push   %rbp
  4073d9:	48 89 e5             	mov    %rsp,%rbp
  4073dc:	48 83 ec 30          	sub    $0x30,%rsp
  4073e0:	48 89 7d f8          	mov    %rdi,0xfffffffffffffff8(%rbp)
  4073e4:	48 89 75 f0          	mov    %rsi,0xfffffffffffffff0(%rbp)
  4073e8:	48 89 55 e8          	mov    %rdx,0xffffffffffffffe8(%rbp)
  4073ec:	48 89 4d e0          	mov    %rcx,0xffffffffffffffe0(%rbp)
  4073f0:	4c 89 45 d8          	mov    %r8,0xffffffffffffffd8(%rbp)
  4073f4:	48 8b 7d f8          	mov    0xfffffffffffffff8(%rbp),%rdi
  4073f8:	e8 1f eb ff ff       	callq  405f1c <_ZNK11ACE_IPC_SAP10get_handleEv>
  4073fd:	89 c7                	mov    %eax,%edi
  4073ff:	48 8b 45 d8          	mov    0xffffffffffffffd8(%rbp),%rax
  407403:	48 8b 4d e0          	mov    0xffffffffffffffe0(%rbp),%rcx
  407407:	48 8b 55 e8          	mov    0xffffffffffffffe8(%rbp),%rdx
  40740b:	48 8b 75 f0          	mov    0xfffffffffffffff0(%rbp),%rsi
  40740f:	49 89 c0             	mov    %rax,%r8
  407412:	e8 5f ff ff ff       	callq  407376 <_ZN3ACE6send_nEiPKvmPK14ACE_Time_ValuePm>
  407417:	c9                   	leaveq 
  407418:	c3                   	retq   
  407419:	90                   	nop    

